# Disassembly of isa_4b.hex (assumed RV32I/M)
# Format: <pc>: <hex>    <asm>

00000000: 00007137    lui x2, 0x7000
00000004: 00010113    addi x2, x2, 0
00000008: 0CC0006F    jal x0, 0xd4
0000000c: 100002B7    lui x5, 0x10000000
00000010: 00028293    addi x5, x5, 0
00000014: 00A28023    sb x10, 0(x5)
00000018: 00008067    jalr x0, x1, 0
0000001c: 00100073    ebreak
00000020: FFDFF06F    jal x0, 0x1c
00000024: 00112023    sw x1, 0(x2)
00000028: 02E00513    addi x10, x0, 46
0000002c: FE1FF0EF    jal x1, 0xc
00000030: 02E00513    addi x10, x0, 46
00000034: FD9FF0EF    jal x1, 0xc
00000038: 02E00513    addi x10, x0, 46
0000003c: FD1FF0EF    jal x1, 0xc
00000040: 05000513    addi x10, x0, 80
00000044: FC9FF0EF    jal x1, 0xc
00000048: 04100513    addi x10, x0, 65
0000004c: FC1FF0EF    jal x1, 0xc
00000050: 05300513    addi x10, x0, 83
00000054: FB9FF0EF    jal x1, 0xc
00000058: 05300513    addi x10, x0, 83
0000005c: FB1FF0EF    jal x1, 0xc
00000060: 00D00513    addi x10, x0, 13
00000064: FA9FF0EF    jal x1, 0xc
00000068: 00A00513    addi x10, x0, 10174
0000006c: FA1FF0EF    jal x1, 0xc
00000070: 00012083    lw x1, 0(x2)
00000074: 00008067    jalr x0, x1, 0
00000078: 00112023    sw x1, 0(x2)
0000007c: 02E00513    addi x10, x0, 46
00000080: F8DFF0EF    jal x1, 0xc
00000084: 02E00513    addi x10, x0, 46
00000088: F85FF0EF    jal x1, 0xc
0000008c: 02E00513    addi x10, x0, 46
00000090: F7DFF0EF    jal x1, 0xc
00000094: 04500513    addi x10, x0, 69
00000098: F75FF0EF    jal x1, 0xc
0000009c: 05200513    addi x10, x0, 82
000000a0: F6DFF0EF    jal x1, 0xc
000000a4: 05200513    addi x10, x0, 82
000000a8: F65FF0EF    jal x1, 0xc
000000ac: 04F00513    addi x10, x0, 79
000000b0: F5DFF0EF    jal x1, 0xc
000000b4: 05200513    addi x10, x0, 82
000000b8: F55FF0EF    jal x1, 0xc
000000bc: 00D00513    addi x10, x0, 13
000000c0: F4DFF0EF    jal x1, 0xc
000000c4: 00A00513    addi x10, x0, 10
000000c8: F45FF0EF    jal x1, 0xc
000000cc: 00012083    lw x1, 0(x2)
000000d0: 00008067    jalr x0, x1, 0
000000d4: 0A0000EF    jal x1, 0x174
000000d8: 184000EF    jal x1, 0x25c
000000dc: 240000EF    jal x1, 0x31c
000000e0: 320000EF    jal x1, 0x400
000000e4: 3F0000EF    jal x1, 0x4d4
000000e8: 4A8000EF    jal x1, 0x590
000000ec: 57C000EF    jal x1, 0x668
000000f0: 63C000EF    jal x1, 0x72c
000000f4: 710000EF    jal x1, 0x804
000000f8: 7D8000EF    jal x1, 0x8d0
000000fc: 21D000EF    jal x1, 0xb18
00000100: 0F5000EF    jal x1, 0x9f4
00000104: 2D5000EF    jal x1, 0xbd8
00000108: 391000EF    jal x1, 0xc98
0000010c: 43D000EF    jal x1, 0xd48
00000110: 4C5000EF    jal x1, 0xdd4
00000114: 579000EF    jal x1, 0xe8c
00000118: 609000EF    jal x1, 0xf20
0000011c: 6B5000EF    jal x1, 0xfd0
00000120: 741000EF    jal x1, 0x1060
00000124: 7BD000EF    jal x1, 0x10e0
00000128: 064010EF    jal x1, 0x118c
0000012c: 10C010EF    jal x1, 0x1238
00000130: 1A4010EF    jal x1, 0x12d4
00000134: 23C010EF    jal x1, 0x1370
00000138: 2B8010EF    jal x1, 0x13f0
0000013c: 344010EF    jal x1, 0x1480
00000140: 3C4010EF    jal x1, 0x1504
00000144: 428010EF    jal x1, 0x156c
00000148: 480010EF    jal x1, 0x15c8
0000014c: 574010EF    jal x1, 0x16c0
00000150: 664010EF    jal x1, 0x17b4
00000154: 750010EF    jal x1, 0x18a4
00000158: 03D010EF    jal x1, 0x1994
0000015c: 12D010EF    jal x1, 0x1a88
00000160: 21D010EF    jal x1, 0x1b7c
00000164: 265010EF    jal x1, 0x1bc8
00000168: 2AD010EF    jal x1, 0x1c14
0000016c: 33D010EF    jal x1, 0x1ca8
00000170: EADFF06F    jal x0, 0x1c
00000174: 00112223    sw x1, 4(x2)
00000178: 06100513    addi x10, x0, 97
0000017c: E91FF0EF    jal x1, 0xc
00000180: 06400513    addi x10, x0, 100
00000184: E89FF0EF    jal x1, 0xc
00000188: 06400513    addi x10, x0, 100
0000018c: E81FF0EF    jal x1, 0xc
00000190: 02E00513    addi x10, x0, 46
00000194: E79FF0EF    jal x1, 0xc
00000198: 02E00513    addi x10, x0, 46
0000019c: E71FF0EF    jal x1, 0xc
000001a0: 02E00513    addi x10, x0, 46
000001a4: E69FF0EF    jal x1, 0xc
000001a8: 00000893    addi x17, x0, 0
000001ac: 00000313    addi x6, x0, 0
000001b0: 00000393    addi x7, x0, 0
000001b4: 007302B3    add x5, x6, x7
000001b8: 08589863    bne x17, x5, 0x248
000001bc: 00A00893    addi x17, x0, 10
000001c0: 00200313    addi x6, x0, 2
000001c4: 00800393    addi x7, x0, 8
000001c8: 007302B3    add x5, x6, x7
000001cc: 06589E63    bne x17, x5, 0x248
000001d0: FFFF88B7    lui x17, 0xffff8000
000001d4: 00088893    addi x17, x17, 0
000001d8: 00000313    addi x6, x0, 0
000001dc: FFFF83B7    lui x7, 0xffff8000
000001e0: 00038393    addi x7, x7, 0
000001e4: 007002B3    add x5, x0, x7
000001e8: 06589063    bne x17, x5, 0x248
000001ec: 800088B7    lui x17, 0x80008000
000001f0: FFE88893    addi x17, x17, -2
000001f4: 80000337    lui x6, 0x80000000
000001f8: FFF30313    addi x6, x6, -1
000001fc: 000083B7    lui x7, 0x8000
00000200: FFF38393    addi x7, x7, -1
00000204: 007302B3    add x5, x6, x7
00000208: 04589063    bne x17, x5, 0x248
0000020c: 00000893    addi x17, x0, 0
00000210: FFF00313    addi x6, x0, -1
00000214: 00100393    addi x7, x0, 1
00000218: 007302B3    add x5, x6, x7
0000021c: 02589663    bne x17, x5, 0x248
00000220: 03B00893    addi x17, x0, 59
00000224: 00B00313    addi x6, x0, 11
00000228: 00C00393    addi x7, x0, 12
0000022c: 00D00E13    addi x28, x0, 13
00000230: 007302B3    add x5, x6, x7
00000234: 005302B3    add x5, x6, x5
00000238: 01C282B3    add x5, x5, x28
0000023c: 005382B3    add x5, x7, x5
00000240: 00589463    bne x17, x5, 0x248
00000244: 00C0006F    jal x0, 0x250
00000248: E31FF0EF    jal x1, 0x78
0000024c: 0080006F    jal x0, 0x254
00000250: DD5FF0EF    jal x1, 0x24
00000254: 00412083    lw x1, 4(x2)
00000258: 00008067    jalr x0, x1, 0
0000025c: 00112223    sw x1, 4(x2)
00000260: 06100513    addi x10, x0, 97
00000264: DA9FF0EF    jal x1, 0xc
00000268: 06400513    addi x10, x0, 100
0000026c: DA1FF0EF    jal x1, 0xc
00000270: 06400513    addi x10, x0, 100
00000274: D99FF0EF    jal x1, 0xc
00000278: 06900513    addi x10, x0, 105
0000027c: D91FF0EF    jal x1, 0xc
00000280: 02E00513    addi x10, x0, 46
00000284: D89FF0EF    jal x1, 0xc
00000288: 02E00513    addi x10, x0, 46
0000028c: D81FF0EF    jal x1, 0xc
00000290: 00000893    addi x17, x0, 0
00000294: 00000313    addi x6, x0, 0
00000298: 00030293    addi x5, x6, 0
0000029c: 06589663    bne x17, x5, 0x308
000002a0: 00A00893    addi x17, x0, 10
000002a4: 00200313    addi x6, x0, 2
000002a8: 00830293    addi x5, x6, 8
000002ac: 04589E63    bne x17, x5, 0x308
000002b0: FFFF88B7    lui x17, 0xffff8000
000002b4: 00088893    addi x17, x17, 0
000002b8: FFFF8337    lui x6, 0xffff8000
000002bc: 00030313    addi x6, x6, 0
000002c0: 00030293    addi x5, x6, 0
000002c4: 04589263    bne x17, x5, 0x308
000002c8: 000088B7    lui x17, 0x8000
000002cc: FFE88893    addi x17, x17, -2
000002d0: 00008337    lui x6, 0x8000
000002d4: FFF30313    addi x6, x6, -1
000002d8: FFF30293    addi x5, x6, -1
000002dc: 02589663    bne x17, x5, 0x308
000002e0: 00000893    addi x17, x0, 0
000002e4: FFF00313    addi x6, x0, -1
000002e8: 00130293    addi x5, x6, 1
000002ec: 00589E63    bne x17, x5, 0x308
000002f0: 02200893    addi x17, x0, 34
000002f4: 00B00313    addi x6, x0, 11
000002f8: 00C30293    addi x5, x6, 12
000002fc: 00B28293    addi x5, x5, 11
00000300: 00589463    bne x17, x5, 0x308
00000304: 00C0006F    jal x0, 0x310
00000308: D71FF0EF    jal x1, 0x78
0000030c: 0080006F    jal x0, 0x314
00000310: D15FF0EF    jal x1, 0x24
00000314: 00412083    lw x1, 4(x2)
00000318: 00008067    jalr x0, x1, 0
0000031c: 00112223    sw x1, 4(x2)
00000320: 07300513    addi x10, x0, 115
00000324: CE9FF0EF    jal x1, 0xc
00000328: 07500513    addi x10, x0, 117
0000032c: CE1FF0EF    jal x1, 0xc
00000330: 06200513    addi x10, x0, 98
00000334: CD9FF0EF    jal x1, 0xc
00000338: 02E00513    addi x10, x0, 46
0000033c: CD1FF0EF    jal x1, 0xc
00000340: 02E00513    addi x10, x0, 46
00000344: CC9FF0EF    jal x1, 0xc
00000348: 02E00513    addi x10, x0, 46
0000034c: CC1FF0EF    jal x1, 0xc
00000350: 00000893    addi x17, x0, 0
00000354: 00000313    addi x6, x0, 0
00000358: 00000393    addi x7, x0, 0
0000035c: 407302B3    sub x5, x6, x7
00000360: 08589663    bne x17, x5, 0x3ec
00000364: 00600893    addi x17, x0, 6
00000368: 00800313    addi x6, x0, 8
0000036c: 00200393    addi x7, x0, 2
00000370: 407302B3    sub x5, x6, x7
00000374: 06589C63    bne x17, x5, 0x3ec
00000378: 000088B7    lui x17, 0x8000
0000037c: 00088893    addi x17, x17, 0
00000380: FFFF83B7    lui x7, 0xffff8000
00000384: 00038393    addi x7, x7, 0
00000388: 407002B3    sub x5, x0, x7
0000038c: 06589063    bne x17, x5, 0x3ec
00000390: 7FFF88B7    lui x17, 0x7fff8000
00000394: 00188893    addi x17, x17, 1
00000398: 80000337    lui x6, 0x80000000
0000039c: 00030313    addi x6, x6, 0
000003a0: 000083B7    lui x7, 0x8000
000003a4: FFF38393    addi x7, x7, -1
000003a8: 407302B3    sub x5, x6, x7
000003ac: 04589063    bne x17, x5, 0x3ec
000003b0: FFE00893    addi x17, x0, -2
000003b4: FFF00313    addi x6, x0, -1
000003b8: 00100393    addi x7, x0, 1
000003bc: 407302B3    sub x5, x6, x7
000003c0: 02589663    bne x17, x5, 0x3ec
000003c4: 00300893    addi x17, x0, 3
000003c8: 05900313    addi x6, x0, 89
000003cc: 00D00393    addi x7, x0, 13
000003d0: 00300E13    addi x28, x0, 3
000003d4: 407302B3    sub x5, x6, x7
000003d8: 405302B3    sub x5, x6, x5
000003dc: 41C282B3    sub x5, x5, x28
000003e0: 405382B3    sub x5, x7, x5
000003e4: 00589463    bne x17, x5, 0x3ec
000003e8: 00C0006F    jal x0, 0x3f4
000003ec: C8DFF0EF    jal x1, 0x78
000003f0: 0080006F    jal x0, 0x3f8
000003f4: C31FF0EF    jal x1, 0x24
000003f8: 00412083    lw x1, 4(x2)
000003fc: 00008067    jalr x0, x1, 0
00000400: 00112223    sw x1, 4(x2)
00000404: 06100513    addi x10, x0, 97
00000408: C05FF0EF    jal x1, 0xc
0000040c: 06E00513    addi x10, x0, 110
00000410: BFDFF0EF    jal x1, 0xc
00000414: 06400513    addi x10, x0, 100
00000418: BF5FF0EF    jal x1, 0xc
0000041c: 02E00513    addi x10, x0, 46
00000420: BEDFF0EF    jal x1, 0xc
00000424: 02E00513    addi x10, x0, 46
00000428: BE5FF0EF    jal x1, 0xc
0000042c: 02E00513    addi x10, x0, 46
00000430: BDDFF0EF    jal x1, 0xc
00000434: 0F0018B7    lui x17, 0xf001000
00000438: F0088893    addi x17, x17, -256
0000043c: FF010337    lui x6, 0xff010000
00000440: F0030313    addi x6, x6, -256
00000444: 0F0F13B7    lui x7, 0xf0f1000
00000448: F0F38393    addi x7, x7, -241
0000044c: 007372B3    and x5, x6, x7
00000450: 06589863    bne x17, x5, 0x4c0
00000454: F000F8B7    lui x17, 0xf000f000
00000458: 00088893    addi x17, x17, 0
0000045c: F00FF337    lui x6, 0xf00ff000
00000460: 00F30313    addi x6, x6, 15
00000464: F0F0F3B7    lui x7, 0xf0f0f000
00000468: 0F038393    addi x7, x7, 240
0000046c: 007372B3    and x5, x6, x7
00000470: 04589863    bne x17, x5, 0x4c0
00000474: 00000893    addi x17, x0, 0
00000478: 00000313    addi x6, x0, 0
0000047c: FFFF83B7    lui x7, 0xffff8000
00000480: 00038393    addi x7, x7, 0
00000484: 007072B3    and x5, x0, x7
00000488: 02589C63    bne x17, x5, 0x4c0
0000048c: F00F08B7    lui x17, 0xf00f0000
00000490: 00088893    addi x17, x17, 0
00000494: FF100337    lui x6, 0xff100000
00000498: F0F30313    addi x6, x6, -241
0000049c: FFFF03B7    lui x7, 0xffff0000
000004a0: 00038393    addi x7, x7, 0
000004a4: F00FFE37    lui x28, 0xf00ff000
000004a8: 00FE0E13    addi x28, x28, 15
000004ac: 007372B3    and x5, x6, x7
000004b0: 01C2F2B3    and x5, x5, x28
000004b4: 0053F2B3    and x5, x7, x5
000004b8: 00589463    bne x17, x5, 0x4c0
000004bc: 00C0006F    jal x0, 0x4c8
000004c0: BB9FF0EF    jal x1, 0x78
000004c4: 0080006F    jal x0, 0x4cc
000004c8: B5DFF0EF    jal x1, 0x24
000004cc: 00412083    lw x1, 4(x2)
000004d0: 00008067    jalr x0, x1, 0
000004d4: 00112223    sw x1, 4(x2)
000004d8: 06100513    addi x10, x0, 97
000004dc: B31FF0EF    jal x1, 0xc
000004e0: 06E00513    addi x10, x0, 110
000004e4: B29FF0EF    jal x1, 0xc
000004e8: 06400513    addi x10, x0, 100
000004ec: B21FF0EF    jal x1, 0xc
000004f0: 06900513    addi x10, x0, 105
000004f4: B19FF0EF    jal x1, 0xc
000004f8: 02E00513    addi x10, x0, 46
000004fc: B11FF0EF    jal x1, 0xc
00000500: 02E00513    addi x10, x0, 46
00000504: B09FF0EF    jal x1, 0xc
00000508: FF0108B7    lui x17, 0xff010000
0000050c: F0088893    addi x17, x17, -256
00000510: FF010337    lui x6, 0xff010000
00000514: F0030313    addi x6, x6, -256
00000518: F0F37293    andi x5, x6, -241
0000051c: 06589063    bne x17, x5, 0x57c
00000520: 00F00893    addi x17, x0, 15
00000524: 00FF0337    lui x6, 0xff0000
00000528: 0FF30313    addi x6, x6, 255
0000052c: 70F37293    andi x5, x6, 1807
00000530: 04589663    bne x17, x5, 0x57c
00000534: 00000893    addi x17, x0, 0
00000538: F00FF337    lui x6, 0xf00ff000
0000053c: 00F30313    addi x6, x6, 15
00000540: 0F037293    andi x5, x6, 240
00000544: 02589C63    bne x17, x5, 0x57c
00000548: 00000893    addi x17, x0, 0
0000054c: FF010337    lui x6, 0xff010000
00000550: F0030313    addi x6, x6, -256
00000554: 00030293    addi x5, x6, 0
00000558: 0F02F293    andi x5, x5, 240
0000055c: 02589063    bne x17, x5, 0x57c
00000560: 00F00893    addi x17, x0, 15
00000564: F00FF337    lui x6, 0xf00ff000
00000568: 00F30313    addi x6, x6, 15
0000056c: 70F37293    andi x5, x6, 1807
00000570: F0F2F293    andi x5, x5, -241
00000574: 00589463    bne x17, x5, 0x57c
00000578: 00C0006F    jal x0, 0x584
0000057c: AFDFF0EF    jal x1, 0x78
00000580: 0080006F    jal x0, 0x588
00000584: AA1FF0EF    jal x1, 0x24
00000588: 00412083    lw x1, 4(x2)
0000058c: 00008067    jalr x0, x1, 0
00000590: 00112223    sw x1, 4(x2)
00000594: 06F00513    addi x10, x0, 111
00000598: A75FF0EF    jal x1, 0xc
0000059c: 07200513    addi x10, x0, 114
000005a0: A6DFF0EF    jal x1, 0xc
000005a4: 02E00513    addi x10, x0, 46
000005a8: A65FF0EF    jal x1, 0xc
000005ac: 02E00513    addi x10, x0, 46
000005b0: A5DFF0EF    jal x1, 0xc
000005b4: 02E00513    addi x10, x0, 46
000005b8: A55FF0EF    jal x1, 0xc
000005bc: 02E00513    addi x10, x0, 46
000005c0: A4DFF0EF    jal x1, 0xc
000005c4: FF1008B7    lui x17, 0xff100000
000005c8: F0F88893    addi x17, x17, -241
000005cc: FF010337    lui x6, 0xff010000
000005d0: F0030313    addi x6, x6, -256
000005d4: 0F0F13B7    lui x7, 0xf0f1000
000005d8: F0F38393    addi x7, x7, -241
000005dc: 007362B3    or x5, x6, x7
000005e0: 06589A63    bne x17, x5, 0x654
000005e4: F0FFF8B7    lui x17, 0xf0fff000
000005e8: 0FF88893    addi x17, x17, 255
000005ec: F00FF337    lui x6, 0xf00ff000
000005f0: 00F30313    addi x6, x6, 15
000005f4: F0F0F3B7    lui x7, 0xf0f0f000
000005f8: 0F038393    addi x7, x7, 240
000005fc: 007362B3    or x5, x6, x7
00000600: 04589A63    bne x17, x5, 0x654
00000604: FFFF88B7    lui x17, 0xffff8000
00000608: 00088893    addi x17, x17, 0
0000060c: 00000313    addi x6, x0, 0
00000610: FFFF83B7    lui x7, 0xffff8000
00000614: 00038393    addi x7, x7, 0
00000618: 007062B3    or x5, x0, x7
0000061c: 02589C63    bne x17, x5, 0x654
00000620: FF1008B7    lui x17, 0xff100000
00000624: F0F88893    addi x17, x17, -241
00000628: FF100337    lui x6, 0xff100000
0000062c: F0F30313    addi x6, x6, -241
00000630: FF0003B7    lui x7, 0xff000000
00000634: 00038393    addi x7, x7, 0
00000638: F00FFE37    lui x28, 0xf00ff000
0000063c: 00FE0E13    addi x28, x28, 15
00000640: 007362B3    or x5, x6, x7
00000644: 01C2E2B3    or x5, x5, x28
00000648: 0053E2B3    or x5, x7, x5
0000064c: 00589463    bne x17, x5, 0x654
00000650: 00C0006F    jal x0, 0x65c
00000654: A25FF0EF    jal x1, 0x78
00000658: 0080006F    jal x0, 0x660
0000065c: 9C9FF0EF    jal x1, 0x24
00000660: 00412083    lw x1, 4(x2)
00000664: 00008067    jalr x0, x1, 0
00000668: 00112223    sw x1, 4(x2)
0000066c: 06F00513    addi x10, x0, 111
00000670: 99DFF0EF    jal x1, 0xc
00000674: 07200513    addi x10, x0, 114
00000678: 995FF0EF    jal x1, 0xc
0000067c: 06900513    addi x10, x0, 105
00000680: 98DFF0EF    jal x1, 0xc
00000684: 02E00513    addi x10, x0, 46
00000688: 985FF0EF    jal x1, 0xc
0000068c: 02E00513    addi x10, x0, 46
00000690: 97DFF0EF    jal x1, 0xc
00000694: 02E00513    addi x10, x0, 46
00000698: 975FF0EF    jal x1, 0xc
0000069c: F0F00893    addi x17, x0, -241
000006a0: FF010337    lui x6, 0xff010000
000006a4: F0F30313    addi x6, x6, -241
000006a8: F0F36293    ori x5, x6, -241
000006ac: 06589663    bne x17, x5, 0x718
000006b0: 00FF08B7    lui x17, 0xff0000
000006b4: 7FF88893    addi x17, x17, 2047
000006b8: 00FF0337    lui x6, 0xff0000
000006bc: 0FF30313    addi x6, x6, 255
000006c0: 70F36293    ori x5, x6, 1807
000006c4: 04589A63    bne x17, x5, 0x718
000006c8: F00FF8B7    lui x17, 0xf00ff000
000006cc: 0FF88893    addi x17, x17, 255
000006d0: F00FF337    lui x6, 0xf00ff000
000006d4: 00F30313    addi x6, x6, 15
000006d8: 0F036293    ori x5, x6, 240
000006dc: 02589E63    bne x17, x5, 0x718
000006e0: FF0108B7    lui x17, 0xff010000
000006e4: FF088893    addi x17, x17, -16
000006e8: FF010337    lui x6, 0xff010000
000006ec: F0030313    addi x6, x6, -256
000006f0: 00030293    addi x5, x6, 0
000006f4: 0F02E293    ori x5, x5, 240
000006f8: 02589063    bne x17, x5, 0x718
000006fc: F0F00893    addi x17, x0, -241
00000700: F00FF337    lui x6, 0xf00ff000
00000704: 00F30313    addi x6, x6, 15
00000708: 70F36293    ori x5, x6, 1807
0000070c: F0F2E293    ori x5, x5, -241
00000710: 00589463    bne x17, x5, 0x718
00000714: 00C0006F    jal x0, 0x720
00000718: 961FF0EF    jal x1, 0x78
0000071c: 0080006F    jal x0, 0x724
00000720: 905FF0EF    jal x1, 0x24
00000724: 00412083    lw x1, 4(x2)
00000728: 00008067    jalr x0, x1, 0
0000072c: 00112223    sw x1, 4(x2)
00000730: 07800513    addi x10, x0, 120
00000734: 8D9FF0EF    jal x1, 0xc
00000738: 06F00513    addi x10, x0, 111
0000073c: 8D1FF0EF    jal x1, 0xc
00000740: 07200513    addi x10, x0, 114
00000744: 8C9FF0EF    jal x1, 0xc
00000748: 02E00513    addi x10, x0, 46
0000074c: 8C1FF0EF    jal x1, 0xc
00000750: 02E00513    addi x10, x0, 46
00000754: 8B9FF0EF    jal x1, 0xc
00000758: 02E00513    addi x10, x0, 46
0000075c: 8B1FF0EF    jal x1, 0xc
00000760: F00FF8B7    lui x17, 0xf00ff000
00000764: 00F88893    addi x17, x17, 15
00000768: FF010337    lui x6, 0xff010000
0000076c: F0030313    addi x6, x6, -256
00000770: 0F0F13B7    lui x7, 0xf0f1000
00000774: F0F38393    addi x7, x7, -241
00000778: 007342B3    xor x5, x6, x7
0000077c: 06589A63    bne x17, x5, 0x7f0
00000780: 00FF08B7    lui x17, 0xff0000
00000784: 0FF88893    addi x17, x17, 255
00000788: F00FF337    lui x6, 0xf00ff000
0000078c: 00F30313    addi x6, x6, 15
00000790: F0F0F3B7    lui x7, 0xf0f0f000
00000794: 0F038393    addi x7, x7, 240
00000798: 007342B3    xor x5, x6, x7
0000079c: 04589A63    bne x17, x5, 0x7f0
000007a0: FFFF88B7    lui x17, 0xffff8000
000007a4: 00088893    addi x17, x17, 0
000007a8: 00000313    addi x6, x0, 0
000007ac: FFFF83B7    lui x7, 0xffff8000
000007b0: 00038393    addi x7, x7, 0
000007b4: 007042B3    xor x5, x0, x7
000007b8: 02589C63    bne x17, x5, 0x7f0
000007bc: 0F0018B7    lui x17, 0xf001000
000007c0: F0088893    addi x17, x17, -256
000007c4: FF100337    lui x6, 0xff100000
000007c8: F0F30313    addi x6, x6, -241
000007cc: FFFF03B7    lui x7, 0xffff0000
000007d0: 00038393    addi x7, x7, 0
000007d4: F00FFE37    lui x28, 0xf00ff000
000007d8: 00FE0E13    addi x28, x28, 15
000007dc: 007342B3    xor x5, x6, x7
000007e0: 01C2C2B3    xor x5, x5, x28
000007e4: 0053C2B3    xor x5, x7, x5
000007e8: 00589463    bne x17, x5, 0x7f0
000007ec: 00C0006F    jal x0, 0x7f8
000007f0: 889FF0EF    jal x1, 0x78
000007f4: 0080006F    jal x0, 0x7fc
000007f8: 82DFF0EF    jal x1, 0x24
000007fc: 00412083    lw x1, 4(x2)
00000800: 00008067    jalr x0, x1, 0
00000804: 00112223    sw x1, 4(x2)
00000808: 07800513    addi x10, x0, 120
0000080c: 801FF0EF    jal x1, 0xc
00000810: 06F00513    addi x10, x0, 111
00000814: FF8FF0EF    jal x1, 0xc
00000818: 07200513    addi x10, x0, 114
0000081c: FF0FF0EF    jal x1, 0xc
00000820: 06900513    addi x10, x0, 105
00000824: FE8FF0EF    jal x1, 0xc
00000828: 02E00513    addi x10, x0, 46
0000082c: FE0FF0EF    jal x1, 0xc
00000830: 02E00513    addi x10, x0, 46
00000834: FD8FF0EF    jal x1, 0xc
00000838: FF0108B7    lui x17, 0xff010000
0000083c: F0088893    addi x17, x17, -256
00000840: 00FF0337    lui x6, 0xff0000
00000844: 00F30313    addi x6, x6, 15
00000848: F0F34293    xori x5, x6, -241
0000084c: 06589863    bne x17, x5, 0x8bc
00000850: 00FF08B7    lui x17, 0xff0000
00000854: 7F088893    addi x17, x17, 2032
00000858: 00FF0337    lui x6, 0xff0000
0000085c: 0FF30313    addi x6, x6, 255
00000860: 70F34293    xori x5, x6, 1807
00000864: 04589C63    bne x17, x5, 0x8bc
00000868: F00FF8B7    lui x17, 0xf00ff000
0000086c: 0FF88893    addi x17, x17, 255
00000870: F00FF337    lui x6, 0xf00ff000
00000874: 00F30313    addi x6, x6, 15
00000878: 0F034293    xori x5, x6, 240
0000087c: 04589063    bne x17, x5, 0x8bc
00000880: FF0108B7    lui x17, 0xff010000
00000884: FF088893    addi x17, x17, -16
00000888: FF010337    lui x6, 0xff010000
0000088c: F0030313    addi x6, x6, -256
00000890: 00030293    addi x5, x6, 0
00000894: 0F02C293    xori x5, x5, 240
00000898: 02589263    bne x17, x5, 0x8bc
0000089c: 0FF018B7    lui x17, 0xff01000
000008a0: 80F88893    addi x17, x17, -2033
000008a4: F00FF337    lui x6, 0xf00ff000
000008a8: 00F30313    addi x6, x6, 15
000008ac: 70F34293    xori x5, x6, 1807
000008b0: F0F2C293    xori x5, x5, -241
000008b4: 00589463    bne x17, x5, 0x8bc
000008b8: 00C0006F    jal x0, 0x8c4
000008bc: FBCFF0EF    jal x1, 0x78
000008c0: 0080006F    jal x0, 0x8c8
000008c4: F60FF0EF    jal x1, 0x24
000008c8: 00412083    lw x1, 4(x2)
000008cc: 00008067    jalr x0, x1, 0
000008d0: 00112223    sw x1, 4(x2)
000008d4: 07300513    addi x10, x0, 115
000008d8: F34FF0EF    jal x1, 0xc
000008dc: 06C00513    addi x10, x0, 108
000008e0: F2CFF0EF    jal x1, 0xc
000008e4: 07400513    addi x10, x0, 116
000008e8: F24FF0EF    jal x1, 0xc
000008ec: 02E00513    addi x10, x0, 46
000008f0: F1CFF0EF    jal x1, 0xc
000008f4: 02E00513    addi x10, x0, 46
000008f8: F14FF0EF    jal x1, 0xc
000008fc: 02E00513    addi x10, x0, 46
00000900: F0CFF0EF    jal x1, 0xc
00000904: 00000893    addi x17, x0, 0
00000908: 00000313    addi x6, x0, 0
0000090c: 00000393    addi x7, x0, 0
00000910: 007322B3    slt x5, x6, x7
00000914: 0C589663    bne x17, x5, 0x9e0
00000918: 00100893    addi x17, x0, 1
0000091c: 00300313    addi x6, x0, 3
00000920: 00700393    addi x7, x0, 7
00000924: 007322B3    slt x5, x6, x7
00000928: 0A589C63    bne x17, x5, 0x9e0
0000092c: 00000893    addi x17, x0, 0
00000930: 00700313    addi x6, x0, 7
00000934: 00300393    addi x7, x0, 3
00000938: 007322B3    slt x5, x6, x7
0000093c: 0A589263    bne x17, x5, 0x9e0
00000940: 00100893    addi x17, x0, 1
00000944: 80000337    lui x6, 0x80000000
00000948: 00030313    addi x6, x6, 0
0000094c: 00800393    addi x7, x0, 8
00000950: 007322B3    slt x5, x6, x7
00000954: 08589663    bne x17, x5, 0x9e0
00000958: 00000893    addi x17, x0, 0
0000095c: 00800313    addi x6, x0, 8
00000960: 800003B7    lui x7, 0x80000000
00000964: 00038393    addi x7, x7, 0
00000968: 007322B3    slt x5, x6, x7
0000096c: 06589A63    bne x17, x5, 0x9e0
00000970: 00100893    addi x17, x0, 1
00000974: 80000337    lui x6, 0x80000000
00000978: 00030313    addi x6, x6, 0
0000097c: FFF00393    addi x7, x0, -1
00000980: 007322B3    slt x5, x6, x7
00000984: 04589E63    bne x17, x5, 0x9e0
00000988: 00000893    addi x17, x0, 0
0000098c: FFF00313    addi x6, x0, -1
00000990: 800003B7    lui x7, 0x80000000
00000994: 00038393    addi x7, x7, 0
00000998: 007322B3    slt x5, x6, x7
0000099c: 04589263    bne x17, x5, 0x9e0
000009a0: 00000893    addi x17, x0, 0
000009a4: 00800313    addi x6, x0, 8
000009a8: 006322B3    slt x5, x6, x6
000009ac: 02589A63    bne x17, x5, 0x9e0
000009b0: 00000893    addi x17, x0, 0
000009b4: 00800313    addi x6, x0, 8
000009b8: 00000293    addi x5, x0, 0
000009bc: 005322B3    slt x5, x6, x5
000009c0: 02589063    bne x17, x5, 0x9e0
000009c4: 00100893    addi x17, x0, 1
000009c8: 80000337    lui x6, 0x80000000
000009cc: 00030313    addi x6, x6, 0
000009d0: 00000293    addi x5, x0, 0
000009d4: 005322B3    slt x5, x6, x5
000009d8: 00589463    bne x17, x5, 0x9e0
000009dc: 00C0006F    jal x0, 0x9e8
000009e0: E98FF0EF    jal x1, 0x78
000009e4: 0080006F    jal x0, 0x9ec
000009e8: E3CFF0EF    jal x1, 0x24
000009ec: 00412083    lw x1, 4(x2)
000009f0: 00008067    jalr x0, x1, 0
000009f4: 00112223    sw x1, 4(x2)
000009f8: 07300513    addi x10, x0, 115
000009fc: E10FF0EF    jal x1, 0xc
00000a00: 06C00513    addi x10, x0, 108
00000a04: E08FF0EF    jal x1, 0xc
00000a08: 07400513    addi x10, x0, 116
00000a0c: E00FF0EF    jal x1, 0xc
00000a10: 07500513    addi x10, x0, 117
00000a14: DF8FF0EF    jal x1, 0xc
00000a18: 02E00513    addi x10, x0, 46
00000a1c: DF0FF0EF    jal x1, 0xc
00000a20: 02E00513    addi x10, x0, 46
00000a24: DE8FF0EF    jal x1, 0xc
00000a28: 00000893    addi x17, x0, 0
00000a2c: 00000313    addi x6, x0, 0
00000a30: 00000393    addi x7, x0, 0
00000a34: 007332B3    sltu x5, x6, x7
00000a38: 0C589663    bne x17, x5, 0xb04
00000a3c: 00100893    addi x17, x0, 1
00000a40: 00300313    addi x6, x0, 3
00000a44: 00700393    addi x7, x0, 7
00000a48: 007332B3    sltu x5, x6, x7
00000a4c: 0A589C63    bne x17, x5, 0xb04
00000a50: 00000893    addi x17, x0, 0
00000a54: 00700313    addi x6, x0, 7
00000a58: 00300393    addi x7, x0, 3
00000a5c: 007332B3    sltu x5, x6, x7
00000a60: 0A589263    bne x17, x5, 0xb04
00000a64: 00000893    addi x17, x0, 0
00000a68: 80000337    lui x6, 0x80000000
00000a6c: 00030313    addi x6, x6, 0
00000a70: 00800393    addi x7, x0, 8
00000a74: 007332B3    sltu x5, x6, x7
00000a78: 08589663    bne x17, x5, 0xb04
00000a7c: 00100893    addi x17, x0, 1
00000a80: 00800313    addi x6, x0, 8
00000a84: 800003B7    lui x7, 0x80000000
00000a88: 00038393    addi x7, x7, 0
00000a8c: 007332B3    sltu x5, x6, x7
00000a90: 06589A63    bne x17, x5, 0xb04
00000a94: 00100893    addi x17, x0, 1
00000a98: 80000337    lui x6, 0x80000000
00000a9c: 00030313    addi x6, x6, 0
00000aa0: FFF00393    addi x7, x0, -1
00000aa4: 007332B3    sltu x5, x6, x7
00000aa8: 04589E63    bne x17, x5, 0xb04
00000aac: 00000893    addi x17, x0, 0
00000ab0: FFF00313    addi x6, x0, -1
00000ab4: 800003B7    lui x7, 0x80000000
00000ab8: 00038393    addi x7, x7, 0
00000abc: 007332B3    sltu x5, x6, x7
00000ac0: 04589263    bne x17, x5, 0xb04
00000ac4: 00000893    addi x17, x0, 0
00000ac8: 00800313    addi x6, x0, 8
00000acc: 006332B3    sltu x5, x6, x6
00000ad0: 02589A63    bne x17, x5, 0xb04
00000ad4: 00000893    addi x17, x0, 0
00000ad8: 00800313    addi x6, x0, 8
00000adc: 00000293    addi x5, x0, 0
00000ae0: 005332B3    sltu x5, x6, x5
00000ae4: 02589063    bne x17, x5, 0xb04
00000ae8: 00000893    addi x17, x0, 0
00000aec: 80000337    lui x6, 0x80000000
00000af0: 00030313    addi x6, x6, 0
00000af4: 00000293    addi x5, x0, 0
00000af8: 005332B3    sltu x5, x6, x5
00000afc: 00589463    bne x17, x5, 0xb04
00000b00: 00C0006F    jal x0, 0xb0c
00000b04: D74FF0EF    jal x1, 0x78
00000b08: 0080006F    jal x0, 0xb10
00000b0c: D18FF0EF    jal x1, 0x24
00000b10: 00412083    lw x1, 4(x2)
00000b14: 00008067    jalr x0, x1, 0
00000b18: 00112223    sw x1, 4(x2)
00000b1c: 07300513    addi x10, x0, 115
00000b20: CECFF0EF    jal x1, 0xc
00000b24: 06C00513    addi x10, x0, 108
00000b28: CE4FF0EF    jal x1, 0xc
00000b2c: 07400513    addi x10, x0, 116
00000b30: CDCFF0EF    jal x1, 0xc
00000b34: 06900513    addi x10, x0, 105
00000b38: CD4FF0EF    jal x1, 0xc
00000b3c: 02E00513    addi x10, x0, 46
00000b40: CCCFF0EF    jal x1, 0xc
00000b44: 02E00513    addi x10, x0, 46
00000b48: CC4FF0EF    jal x1, 0xc
00000b4c: 00000893    addi x17, x0, 0
00000b50: 00000313    addi x6, x0, 0
00000b54: 00032293    slti x5, x6, 0
00000b58: 06589663    bne x17, x5, 0xbc4
00000b5c: 00100893    addi x17, x0, 1
00000b60: 00300313    addi x6, x0, 3
00000b64: 00732293    slti x5, x6, 7
00000b68: 04589E63    bne x17, x5, 0xbc4
00000b6c: 00000893    addi x17, x0, 0
00000b70: 00700313    addi x6, x0, 7
00000b74: 00332293    slti x5, x6, 3
00000b78: 04589663    bne x17, x5, 0xbc4
00000b7c: 00100893    addi x17, x0, 1
00000b80: 80000337    lui x6, 0x80000000
00000b84: 00030313    addi x6, x6, 0
00000b88: 00232293    slti x5, x6, 2
00000b8c: 02589C63    bne x17, x5, 0xbc4
00000b90: 00000893    addi x17, x0, 0
00000b94: 00800313    addi x6, x0, 8
00000b98: FFF32293    slti x5, x6, -1
00000b9c: 02589463    bne x17, x5, 0xbc4
00000ba0: 00100893    addi x17, x0, 1
00000ba4: 00000293    addi x5, x0, 0
00000ba8: 0082A293    slti x5, x5, 8
00000bac: 00589C63    bne x17, x5, 0xbc4
00000bb0: 00000893    addi x17, x0, 0
00000bb4: 00000293    addi x5, x0, 0
00000bb8: FFF2A293    slti x5, x5, -1
00000bbc: 00589463    bne x17, x5, 0xbc4
00000bc0: 00C0006F    jal x0, 0xbcc
00000bc4: CB4FF0EF    jal x1, 0x78
00000bc8: 0080006F    jal x0, 0xbd0
00000bcc: C58FF0EF    jal x1, 0x24
00000bd0: 00412083    lw x1, 4(x2)
00000bd4: 00008067    jalr x0, x1, 0
00000bd8: 00112223    sw x1, 4(x2)
00000bdc: 07300513    addi x10, x0, 115
00000be0: C2CFF0EF    jal x1, 0xc
00000be4: 06C00513    addi x10, x0, 108
00000be8: C24FF0EF    jal x1, 0xc
00000bec: 07400513    addi x10, x0, 116
00000bf0: C1CFF0EF    jal x1, 0xc
00000bf4: 06900513    addi x10, x0, 105
00000bf8: C14FF0EF    jal x1, 0xc
00000bfc: 07500513    addi x10, x0, 117
00000c00: C0CFF0EF    jal x1, 0xc
00000c04: 02E00513    addi x10, x0, 46
00000c08: C04FF0EF    jal x1, 0xc
00000c0c: 00000893    addi x17, x0, 0
00000c10: 00000313    addi x6, x0, 0
00000c14: 00033293    sltiu x5, x6, 0
00000c18: 06589663    bne x17, x5, 0xc84
00000c1c: 00100893    addi x17, x0, 1
00000c20: 00300313    addi x6, x0, 3
00000c24: 00733293    sltiu x5, x6, 7
00000c28: 04589E63    bne x17, x5, 0xc84
00000c2c: 00000893    addi x17, x0, 0
00000c30: 00700313    addi x6, x0, 7
00000c34: 00333293    sltiu x5, x6, 3
00000c38: 04589663    bne x17, x5, 0xc84
00000c3c: 00000893    addi x17, x0, 0
00000c40: 80000337    lui x6, 0x80000000
00000c44: 00030313    addi x6, x6, 0
00000c48: 00233293    sltiu x5, x6, 2
00000c4c: 02589C63    bne x17, x5, 0xc84
00000c50: 00100893    addi x17, x0, 1
00000c54: 00800313    addi x6, x0, 8
00000c58: FFF33293    sltiu x5, x6, -1
00000c5c: 02589463    bne x17, x5, 0xc84
00000c60: 00100893    addi x17, x0, 1
00000c64: 00000293    addi x5, x0, 0
00000c68: 0082B293    sltiu x5, x5, 8
00000c6c: 00589C63    bne x17, x5, 0xc84
00000c70: 00100893    addi x17, x0, 1
00000c74: 00000293    addi x5, x0, 0
00000c78: FFF2B293    sltiu x5, x5, -1
00000c7c: 00589463    bne x17, x5, 0xc84
00000c80: 00C0006F    jal x0, 0xc8c
00000c84: BF4FF0EF    jal x1, 0x78
00000c88: 0080006F    jal x0, 0xc90
00000c8c: B98FF0EF    jal x1, 0x24
00000c90: 00412083    lw x1, 4(x2)
00000c94: 00008067    jalr x0, x1, 0
00000c98: 00112223    sw x1, 4(x2)
00000c9c: 07300513    addi x10, x0, 115
00000ca0: B6CFF0EF    jal x1, 0xc
00000ca4: 06C00513    addi x10, x0, 108
00000ca8: B64FF0EF    jal x1, 0xc
00000cac: 06C00513    addi x10, x0, 108
00000cb0: B5CFF0EF    jal x1, 0xc
00000cb4: 02E00513    addi x10, x0, 46
00000cb8: B54FF0EF    jal x1, 0xc
00000cbc: 02E00513    addi x10, x0, 46
00000cc0: B4CFF0EF    jal x1, 0xc
00000cc4: 02E00513    addi x10, x0, 46
00000cc8: B44FF0EF    jal x1, 0xc
00000ccc: 000048B7    lui x17, 0x4000
00000cd0: 00088893    addi x17, x17, 0
00000cd4: 00100313    addi x6, x0, 1
00000cd8: 00E00393    addi x7, x0, 14
00000cdc: 007312B3    sll x5, x6, x7
00000ce0: 04589A63    bne x17, x5, 0xd34
00000ce4: F8000893    addi x17, x0, -128
00000ce8: FFF00313    addi x6, x0, -1
00000cec: 00700393    addi x7, x0, 7
00000cf0: 007312B3    sll x5, x6, x7
00000cf4: 04589063    bne x17, x5, 0xd34
00000cf8: 484848B7    lui x17, 0x48484000
00000cfc: 00088893    addi x17, x17, 0
00000d00: 21212337    lui x6, 0x21212000
00000d04: 12130313    addi x6, x6, 289
00000d08: 00E00393    addi x7, x0, 14
00000d0c: 007312B3    sll x5, x6, x7
00000d10: 02589263    bne x17, x5, 0xd34
00000d14: 484848B7    lui x17, 0x48484000
00000d18: 00088893    addi x17, x17, 0
00000d1c: 21212337    lui x6, 0x21212000
00000d20: 12130313    addi x6, x6, 289
00000d24: FEE00393    addi x7, x0, -18
00000d28: 007312B3    sll x5, x6, x7
00000d2c: 00589463    bne x17, x5, 0xd34
00000d30: 00C0006F    jal x0, 0xd3c
00000d34: B44FF0EF    jal x1, 0x78
00000d38: 0080006F    jal x0, 0xd40
00000d3c: AE8FF0EF    jal x1, 0x24
00000d40: 00412083    lw x1, 4(x2)
00000d44: 00008067    jalr x0, x1, 0
00000d48: 00112223    sw x1, 4(x2)
00000d4c: 07300513    addi x10, x0, 115
00000d50: ABCFF0EF    jal x1, 0xc
00000d54: 06C00513    addi x10, x0, 108
00000d58: AB4FF0EF    jal x1, 0xc
00000d5c: 06C00513    addi x10, x0, 108
00000d60: AACFF0EF    jal x1, 0xc
00000d64: 06900513    addi x10, x0, 105
00000d68: AA4FF0EF    jal x1, 0xc
00000d6c: 02E00513    addi x10, x0, 46
00000d70: A9CFF0EF    jal x1, 0xc
00000d74: 02E00513    addi x10, x0, 46
00000d78: A94FF0EF    jal x1, 0xc
00000d7c: 000048B7    lui x17, 0x4000
00000d80: 00088893    addi x17, x17, 0
00000d84: 00100313    addi x6, x0, 1
00000d88: 00E31293    slli x5, x6, 14
00000d8c: 02589A63    bne x17, x5, 0xdc0
00000d90: F8000893    addi x17, x0, -128
00000d94: FFF00313    addi x6, x0, -1
00000d98: 00731293    slli x5, x6, 7
00000d9c: 02589263    bne x17, x5, 0xdc0
00000da0: 484848B7    lui x17, 0x48484000
00000da4: 00088893    addi x17, x17, 0
00000da8: 21212337    lui x6, 0x21212000
00000dac: 12130313    addi x6, x6, 289
00000db0: 00E00393    addi x7, x0, 14
00000db4: 00E31293    slli x5, x6, 14
00000db8: 00589463    bne x17, x5, 0xdc0
00000dbc: 00C0006F    jal x0, 0xdc8
00000dc0: AB8FF0EF    jal x1, 0x78
00000dc4: 0080006F    jal x0, 0xdcc
00000dc8: A5CFF0EF    jal x1, 0x24
00000dcc: 00412083    lw x1, 4(x2)
00000dd0: 00008067    jalr x0, x1, 0
00000dd4: 00112223    sw x1, 4(x2)
00000dd8: 07300513    addi x10, x0, 115
00000ddc: A30FF0EF    jal x1, 0xc
00000de0: 07200513    addi x10, x0, 114
00000de4: A28FF0EF    jal x1, 0xc
00000de8: 06C00513    addi x10, x0, 108
00000dec: A20FF0EF    jal x1, 0xc
00000df0: 02E00513    addi x10, x0, 46
00000df4: A18FF0EF    jal x1, 0xc
00000df8: 02E00513    addi x10, x0, 46
00000dfc: A10FF0EF    jal x1, 0xc
00000e00: 02E00513    addi x10, x0, 46
00000e04: A08FF0EF    jal x1, 0xc
00000e08: 020008B7    lui x17, 0x2000000
00000e0c: F0088893    addi x17, x17, -256
00000e10: FFFF8337    lui x6, 0xffff8000
00000e14: 00030313    addi x6, x6, 0
00000e18: 00700393    addi x7, x0, 7
00000e1c: 007352B3    srl x5, x6, x7
00000e20: 04589C63    bne x17, x5, 0xe78
00000e24: 000408B7    lui x17, 0x40000
00000e28: FFF88893    addi x17, x17, -1
00000e2c: FFF00313    addi x6, x0, -1
00000e30: 00E00393    addi x7, x0, 14
00000e34: 007352B3    srl x5, x6, x7
00000e38: 04589063    bne x17, x5, 0xe78
00000e3c: 004248B7    lui x17, 0x424000
00000e40: 24288893    addi x17, x17, 578
00000e44: 21212337    lui x6, 0x21212000
00000e48: 12130313    addi x6, x6, 289
00000e4c: 00700393    addi x7, x0, 7
00000e50: 007352B3    srl x5, x6, x7
00000e54: 02589263    bne x17, x5, 0xe78
00000e58: 000088B7    lui x17, 0x8000
00000e5c: 48488893    addi x17, x17, 1156
00000e60: 21212337    lui x6, 0x21212000
00000e64: 12130313    addi x6, x6, 289
00000e68: FEE00393    addi x7, x0, -18
00000e6c: 007352B3    srl x5, x6, x7
00000e70: 00589463    bne x17, x5, 0xe78
00000e74: 00C0006F    jal x0, 0xe80
00000e78: A00FF0EF    jal x1, 0x78
00000e7c: 0080006F    jal x0, 0xe84
00000e80: 9A4FF0EF    jal x1, 0x24
00000e84: 00412083    lw x1, 4(x2)
00000e88: 00008067    jalr x0, x1, 0
00000e8c: 00112223    sw x1, 4(x2)
00000e90: 07300513    addi x10, x0, 115
00000e94: 978FF0EF    jal x1, 0xc
00000e98: 07200513    addi x10, x0, 114
00000e9c: 970FF0EF    jal x1, 0xc
00000ea0: 06C00513    addi x10, x0, 108
00000ea4: 968FF0EF    jal x1, 0xc
00000ea8: 06900513    addi x10, x0, 105
00000eac: 960FF0EF    jal x1, 0xc
00000eb0: 02E00513    addi x10, x0, 46
00000eb4: 958FF0EF    jal x1, 0xc
00000eb8: 02E00513    addi x10, x0, 46
00000ebc: 950FF0EF    jal x1, 0xc
00000ec0: 000408B7    lui x17, 0x40000
00000ec4: FFE88893    addi x17, x17, -2
00000ec8: FFFF8337    lui x6, 0xffff8000
00000ecc: 00030313    addi x6, x6, 0
00000ed0: 00E35293    srli x5, x6, 14
00000ed4: 02589C63    bne x17, x5, 0xf0c
00000ed8: 010008B7    lui x17, 0x1000000
00000edc: FFF88893    addi x17, x17, -1
00000ee0: 80000337    lui x6, 0x80000000
00000ee4: FFF30313    addi x6, x6, -1
00000ee8: 00735293    srli x5, x6, 7
00000eec: 02589063    bne x17, x5, 0xf0c
00000ef0: 000088B7    lui x17, 0x8000
00000ef4: 48488893    addi x17, x17, 1156
00000ef8: 21212337    lui x6, 0x21212000
00000efc: 12130313    addi x6, x6, 289
00000f00: 00E35293    srli x5, x6, 14
00000f04: 00589463    bne x17, x5, 0xf0c
00000f08: 00C0006F    jal x0, 0xf14
00000f0c: 96CFF0EF    jal x1, 0x78
00000f10: 0080006F    jal x0, 0xf18
00000f14: 910FF0EF    jal x1, 0x24
00000f18: 00412083    lw x1, 4(x2)
00000f1c: 00008067    jalr x0, x1, 0
00000f20: 00112223    sw x1, 4(x2)
00000f24: 07300513    addi x10, x0, 115
00000f28: 8E4FF0EF    jal x1, 0xc
00000f2c: 07200513    addi x10, x0, 114
00000f30: 8DCFF0EF    jal x1, 0xc
00000f34: 06100513    addi x10, x0, 97
00000f38: 8D4FF0EF    jal x1, 0xc
00000f3c: 02E00513    addi x10, x0, 46
00000f40: 8CCFF0EF    jal x1, 0xc
00000f44: 02E00513    addi x10, x0, 46
00000f48: 8C4FF0EF    jal x1, 0xc
00000f4c: 02E00513    addi x10, x0, 46
00000f50: 8BCFF0EF    jal x1, 0xc
00000f54: F0000893    addi x17, x0, -256
00000f58: FFFF8337    lui x6, 0xffff8000
00000f5c: 00030313    addi x6, x6, 0
00000f60: 00700393    addi x7, x0, 7
00000f64: 407352B3    sra x5, x6, x7
00000f68: 04589A63    bne x17, x5, 0xfbc
00000f6c: FFF00893    addi x17, x0, -1
00000f70: FFF00313    addi x6, x0, -1
00000f74: 00E00393    addi x7, x0, 14
00000f78: 407352B3    sra x5, x6, x7
00000f7c: 04589063    bne x17, x5, 0xfbc
00000f80: 004248B7    lui x17, 0x424000
00000f84: 24288893    addi x17, x17, 578
00000f88: 21212337    lui x6, 0x21212000
00000f8c: 12130313    addi x6, x6, 289
00000f90: 00700393    addi x7, x0, 7
00000f94: 407352B3    sra x5, x6, x7
00000f98: 02589263    bne x17, x5, 0xfbc
00000f9c: 000088B7    lui x17, 0x8000
00000fa0: 48488893    addi x17, x17, 1156
00000fa4: 21212337    lui x6, 0x21212000
00000fa8: 12130313    addi x6, x6, 289
00000fac: FEE00393    addi x7, x0, -18
00000fb0: 407352B3    sra x5, x6, x7
00000fb4: 00589463    bne x17, x5, 0xfbc
00000fb8: 00C0006F    jal x0, 0xfc4
00000fbc: 8BCFF0EF    jal x1, 0x78
00000fc0: 0080006F    jal x0, 0xfc8
00000fc4: 860FF0EF    jal x1, 0x24
00000fc8: 00412083    lw x1, 4(x2)
00000fcc: 00008067    jalr x0, x1, 0
00000fd0: 00112223    sw x1, 4(x2)
00000fd4: 07300513    addi x10, x0, 115
00000fd8: 834FF0EF    jal x1, 0xc
00000fdc: 07200513    addi x10, x0, 114
00000fe0: 82CFF0EF    jal x1, 0xc
00000fe4: 06100513    addi x10, x0, 97
00000fe8: 824FF0EF    jal x1, 0xc
00000fec: 06900513    addi x10, x0, 105
00000ff0: 81CFF0EF    jal x1, 0xc
00000ff4: 02E00513    addi x10, x0, 46
00000ff8: 814FF0EF    jal x1, 0xc
00000ffc: 02E00513    addi x10, x0, 46
00001000: 80CFF0EF    jal x1, 0xc
00001004: FFE00893    addi x17, x0, -2
00001008: FFFF8337    lui x6, 0xffff8000
0000100c: 00030313    addi x6, x6, 0
00001010: 40E35293    srai x5, x6, 14
00001014: 02589C63    bne x17, x5, 0x104c
00001018: 010008B7    lui x17, 0x1000000
0000101c: FFF88893    addi x17, x17, -1
00001020: 80000337    lui x6, 0x80000000
00001024: FFF30313    addi x6, x6, -1
00001028: 40735293    srai x5, x6, 7
0000102c: 02589063    bne x17, x5, 0x104c
00001030: 000088B7    lui x17, 0x8000
00001034: 48488893    addi x17, x17, 1156
00001038: 21212337    lui x6, 0x21212000
0000103c: 12130313    addi x6, x6, 289
00001040: 40E35293    srai x5, x6, 14
00001044: 00589463    bne x17, x5, 0x104c
00001048: 00C0006F    jal x0, 0x1054
0000104c: 82CFF0EF    jal x1, 0x78
00001050: 0080006F    jal x0, 0x1058
00001054: FD1FE0EF    jal x1, 0x24
00001058: 00412083    lw x1, 4(x2)
0000105c: 00008067    jalr x0, x1, 0
00001060: 00112223    sw x1, 4(x2)
00001064: 06C00513    addi x10, x0, 108
00001068: FA5FE0EF    jal x1, 0xc
0000106c: 07700513    addi x10, x0, 119
00001070: F9DFE0EF    jal x1, 0xc
00001074: 02E00513    addi x10, x0, 46
00001078: F95FE0EF    jal x1, 0xc
0000107c: 02E00513    addi x10, x0, 46
00001080: F8DFE0EF    jal x1, 0xc
00001084: 02E00513    addi x10, x0, 46
00001088: F85FE0EF    jal x1, 0xc
0000108c: 02E00513    addi x10, x0, 46
00001090: F7DFE0EF    jal x1, 0xc
00001094: 123458B7    lui x17, 0x12345000
00001098: 67888893    addi x17, x17, 1656
0000109c: DEADC837    lui x16, 0xdeadc000
000010a0: EEF80813    addi x16, x16, -273
000010a4: 00003337    lui x6, 0x3000
000010a8: 00030313    addi x6, x6, 0
000010ac: 01132023    sw x17, 0(x6)
000010b0: 01032223    sw x16, 4(x6)
000010b4: 00032283    lw x5, 0(x6)
000010b8: 00589A63    bne x17, x5, 0x10cc
000010bc: 00080893    addi x17, x16, 0
000010c0: 00432283    lw x5, 4(x6)
000010c4: 00589463    bne x17, x5, 0x10cc
000010c8: 00C0006F    jal x0, 0x10d4
000010cc: FADFE0EF    jal x1, 0x78
000010d0: 0080006F    jal x0, 0x10d8
000010d4: F51FE0EF    jal x1, 0x24
000010d8: 00412083    lw x1, 4(x2)
000010dc: 00008067    jalr x0, x1, 0
000010e0: 00112223    sw x1, 4(x2)
000010e4: 06C00513    addi x10, x0, 108
000010e8: F25FE0EF    jal x1, 0xc
000010ec: 06800513    addi x10, x0, 104
000010f0: F1DFE0EF    jal x1, 0xc
000010f4: 02E00513    addi x10, x0, 46
000010f8: F15FE0EF    jal x1, 0xc
000010fc: 02E00513    addi x10, x0, 46
00001100: F0DFE0EF    jal x1, 0xc
00001104: 02E00513    addi x10, x0, 46
00001108: F05FE0EF    jal x1, 0xc
0000110c: 02E00513    addi x10, x0, 46
00001110: EFDFE0EF    jal x1, 0xc
00001114: 123458B7    lui x17, 0x12345000
00001118: 67888893    addi x17, x17, 1656
0000111c: DEADC837    lui x16, 0xdeadc000
00001120: EEF80813    addi x16, x16, -273
00001124: 00003337    lui x6, 0x3000
00001128: 01030313    addi x6, x6, 16
0000112c: 01132023    sw x17, 0(x6)
00001130: 01032223    sw x16, 4(x6)
00001134: 000058B7    lui x17, 0x5000
00001138: 67888893    addi x17, x17, 1656
0000113c: 00031283    lh x5, 0(x6)
00001140: 02589C63    bne x17, x5, 0x1178
00001144: 000018B7    lui x17, 0x1000
00001148: 23488893    addi x17, x17, 564
0000114c: 00231283    lh x5, 2(x6)
00001150: 02589463    bne x17, x5, 0x1178
00001154: FFFFC8B7    lui x17, 0xffffc000
00001158: EEF88893    addi x17, x17, -273
0000115c: 00431283    lh x5, 4(x6)
00001160: 00589C63    bne x17, x5, 0x1178
00001164: FFFFE8B7    lui x17, 0xffffe000
00001168: EAD88893    addi x17, x17, -339
0000116c: 00631283    lh x5, 6(x6)
00001170: 00589463    bne x17, x5, 0x1178
00001174: 00C0006F    jal x0, 0x1180
00001178: F01FE0EF    jal x1, 0x78
0000117c: 0080006F    jal x0, 0x1184
00001180: EA5FE0EF    jal x1, 0x24
00001184: 00412083    lw x1, 4(x2)
00001188: 00008067    jalr x0, x1, 0
0000118c: 00112223    sw x1, 4(x2)
00001190: 06C00513    addi x10, x0, 108
00001194: E79FE0EF    jal x1, 0xc
00001198: 06800513    addi x10, x0, 104
0000119c: E71FE0EF    jal x1, 0xc
000011a0: 07500513    addi x10, x0, 117
000011a4: E69FE0EF    jal x1, 0xc
000011a8: 02E00513    addi x10, x0, 46
000011ac: E61FE0EF    jal x1, 0xc
000011b0: 02E00513    addi x10, x0, 46
000011b4: E59FE0EF    jal x1, 0xc
000011b8: 02E00513    addi x10, x0, 46
000011bc: E51FE0EF    jal x1, 0xc
000011c0: 123458B7    lui x17, 0x12345000
000011c4: 67888893    addi x17, x17, 1656
000011c8: DEADC837    lui x16, 0xdeadc000
000011cc: EEF80813    addi x16, x16, -273
000011d0: 00003337    lui x6, 0x3000
000011d4: 02030313    addi x6, x6, 32
000011d8: 01132023    sw x17, 0(x6)
000011dc: 01032223    sw x16, 4(x6)
000011e0: 000058B7    lui x17, 0x5000
000011e4: 67888893    addi x17, x17, 1656
000011e8: 00035283    lhu x5, 0(x6)
000011ec: 02589C63    bne x17, x5, 0x1224
000011f0: 000018B7    lui x17, 0x1000
000011f4: 23488893    addi x17, x17, 564
000011f8: 00235283    lhu x5, 2(x6)
000011fc: 02589463    bne x17, x5, 0x1224
00001200: 0000C8B7    lui x17, 0xc000
00001204: EEF88893    addi x17, x17, -273
00001208: 00435283    lhu x5, 4(x6)
0000120c: 00589C63    bne x17, x5, 0x1224
00001210: 0000E8B7    lui x17, 0xe000
00001214: EAD88893    addi x17, x17, -339
00001218: 00635283    lhu x5, 6(x6)
0000121c: 00589463    bne x17, x5, 0x1224
00001220: 00C0006F    jal x0, 0x122c
00001224: E55FE0EF    jal x1, 0x78
00001228: 0080006F    jal x0, 0x1230
0000122c: DF9FE0EF    jal x1, 0x24
00001230: 00412083    lw x1, 4(x2)
00001234: 00008067    jalr x0, x1, 0
00001238: 00112223    sw x1, 4(x2)
0000123c: 06C00513    addi x10, x0, 108
00001240: DCDFE0EF    jal x1, 0xc
00001244: 06200513    addi x10, x0, 98
00001248: DC5FE0EF    jal x1, 0xc
0000124c: 02E00513    addi x10, x0, 46
00001250: DBDFE0EF    jal x1, 0xc
00001254: 02E00513    addi x10, x0, 46
00001258: DB5FE0EF    jal x1, 0xc
0000125c: 02E00513    addi x10, x0, 46
00001260: DADFE0EF    jal x1, 0xc
00001264: 02E00513    addi x10, x0, 46
00001268: DA5FE0EF    jal x1, 0xc
0000126c: 123458B7    lui x17, 0x12345000
00001270: 67888893    addi x17, x17, 1656
00001274: DEADC837    lui x16, 0xdeadc000
00001278: EEF80813    addi x16, x16, -273
0000127c: 00003337    lui x6, 0x3000
00001280: 02030313    addi x6, x6, 32
00001284: 01132023    sw x17, 0(x6)
00001288: 01032223    sw x16, 4(x6)
0000128c: 07800893    addi x17, x0, 120
00001290: 00030283    lb x5, 0(x6)
00001294: 02589663    bne x17, x5, 0x12c0
00001298: 05600893    addi x17, x0, 86
0000129c: 00130283    lb x5, 1(x6)
000012a0: 02589063    bne x17, x5, 0x12c0
000012a4: FEF00893    addi x17, x0, -17
000012a8: 00430283    lb x5, 4(x6)
000012ac: 00589A63    bne x17, x5, 0x12c0
000012b0: FDE00893    addi x17, x0, -34
000012b4: 00730283    lb x5, 7(x6)
000012b8: 00589463    bne x17, x5, 0x12c0
000012bc: 00C0006F    jal x0, 0x12c8
000012c0: DB9FE0EF    jal x1, 0x78
000012c4: 0080006F    jal x0, 0x12cc
000012c8: D5DFE0EF    jal x1, 0x24
000012cc: 00412083    lw x1, 4(x2)
000012d0: 00008067    jalr x0, x1, 0
000012d4: 00112223    sw x1, 4(x2)
000012d8: 06C00513    addi x10, x0, 108
000012dc: D31FE0EF    jal x1, 0xc
000012e0: 06200513    addi x10, x0, 98
000012e4: D29FE0EF    jal x1, 0xc
000012e8: 07500513    addi x10, x0, 117
000012ec: D21FE0EF    jal x1, 0xc
000012f0: 02E00513    addi x10, x0, 46
000012f4: D19FE0EF    jal x1, 0xc
000012f8: 02E00513    addi x10, x0, 46
000012fc: D11FE0EF    jal x1, 0xc
00001300: 02E00513    addi x10, x0, 46
00001304: D09FE0EF    jal x1, 0xc
00001308: 123458B7    lui x17, 0x12345000
0000130c: 67888893    addi x17, x17, 1656
00001310: DEADC837    lui x16, 0xdeadc000
00001314: EEF80813    addi x16, x16, -273
00001318: 00003337    lui x6, 0x3000
0000131c: 04030313    addi x6, x6, 64
00001320: 01132023    sw x17, 0(x6)
00001324: 01032223    sw x16, 4(x6)
00001328: 07800893    addi x17, x0, 120
0000132c: 00034283    lbu x5, 0(x6)
00001330: 02589663    bne x17, x5, 0x135c
00001334: 05600893    addi x17, x0, 86
00001338: 00134283    lbu x5, 1(x6)
0000133c: 02589063    bne x17, x5, 0x135c
00001340: 0EF00893    addi x17, x0, 239
00001344: 00434283    lbu x5, 4(x6)
00001348: 00589A63    bne x17, x5, 0x135c
0000134c: 0DE00893    addi x17, x0, 222
00001350: 00734283    lbu x5, 7(x6)
00001354: 00589463    bne x17, x5, 0x135c
00001358: 00C0006F    jal x0, 0x1364
0000135c: D1DFE0EF    jal x1, 0x78
00001360: 0080006F    jal x0, 0x1368
00001364: CC1FE0EF    jal x1, 0x24
00001368: 00412083    lw x1, 4(x2)
0000136c: 00008067    jalr x0, x1, 0
00001370: 00112223    sw x1, 4(x2)
00001374: 07300513    addi x10, x0, 115
00001378: C95FE0EF    jal x1, 0xc
0000137c: 07700513    addi x10, x0, 119
00001380: C8DFE0EF    jal x1, 0xc
00001384: 02E00513    addi x10, x0, 46
00001388: C85FE0EF    jal x1, 0xc
0000138c: 02E00513    addi x10, x0, 46
00001390: C7DFE0EF    jal x1, 0xc
00001394: 02E00513    addi x10, x0, 46
00001398: C75FE0EF    jal x1, 0xc
0000139c: 02E00513    addi x10, x0, 46
000013a0: C6DFE0EF    jal x1, 0xc
000013a4: 123458B7    lui x17, 0x12345000
000013a8: 67888893    addi x17, x17, 1656
000013ac: DEADC837    lui x16, 0xdeadc000
000013b0: EEF80813    addi x16, x16, -273
000013b4: 00003337    lui x6, 0x3000
000013b8: 05030313    addi x6, x6, 80
000013bc: 01132023    sw x17, 0(x6)
000013c0: 01032223    sw x16, 4(x6)
000013c4: 00032283    lw x5, 0(x6)
000013c8: 00589A63    bne x17, x5, 0x13dc
000013cc: 00080893    addi x17, x16, 0
000013d0: 00432283    lw x5, 4(x6)
000013d4: 00589463    bne x17, x5, 0x13dc
000013d8: 00C0006F    jal x0, 0x13e4
000013dc: C9DFE0EF    jal x1, 0x78
000013e0: 0080006F    jal x0, 0x13e8
000013e4: C41FE0EF    jal x1, 0x24
000013e8: 00412083    lw x1, 4(x2)
000013ec: 00008067    jalr x0, x1, 0
000013f0: 00112223    sw x1, 4(x2)
000013f4: 07300513    addi x10, x0, 115
000013f8: C15FE0EF    jal x1, 0xc
000013fc: 06800513    addi x10, x0, 104
00001400: C0DFE0EF    jal x1, 0xc
00001404: 02E00513    addi x10, x0, 46
00001408: C05FE0EF    jal x1, 0xc
0000140c: 02E00513    addi x10, x0, 46
00001410: BFDFE0EF    jal x1, 0xc
00001414: 02E00513    addi x10, x0, 46
00001418: BF5FE0EF    jal x1, 0xc
0000141c: 02E00513    addi x10, x0, 46
00001420: BEDFE0EF    jal x1, 0xc
00001424: 123458B7    lui x17, 0x12345000
00001428: 67888893    addi x17, x17, 1656
0000142c: DEADC837    lui x16, 0xdeadc000
00001430: EEF80813    addi x16, x16, -273
00001434: 00003337    lui x6, 0x3000
00001438: 06030313    addi x6, x6, 96
0000143c: 01131023    sh x17, 0(x6)
00001440: 01031223    sh x16, 4(x6)
00001444: 01131323    sh x17, 6(x6)
00001448: 000058B7    lui x17, 0x5000
0000144c: 67888893    addi x17, x17, 1656
00001450: 00032283    lw x5, 0(x6)
00001454: 00589C63    bne x17, x5, 0x146c
00001458: 5678C8B7    lui x17, 0x5678c000
0000145c: EEF88893    addi x17, x17, -273
00001460: 00432283    lw x5, 4(x6)
00001464: 00589463    bne x17, x5, 0x146c
00001468: 00C0006F    jal x0, 0x1474
0000146c: C0DFE0EF    jal x1, 0x78
00001470: 0080006F    jal x0, 0x1478
00001474: BB1FE0EF    jal x1, 0x24
00001478: 00412083    lw x1, 4(x2)
0000147c: 00008067    jalr x0, x1, 0
00001480: 00112223    sw x1, 4(x2)
00001484: 07300513    addi x10, x0, 115
00001488: B85FE0EF    jal x1, 0xc
0000148c: 06200513    addi x10, x0, 98
00001490: B7DFE0EF    jal x1, 0xc
00001494: 02E00513    addi x10, x0, 46
00001498: B75FE0EF    jal x1, 0xc
0000149c: 02E00513    addi x10, x0, 46
000014a0: B6DFE0EF    jal x1, 0xc
000014a4: 02E00513    addi x10, x0, 46
000014a8: B65FE0EF    jal x1, 0xc
000014ac: 02E00513    addi x10, x0, 46
000014b0: B5DFE0EF    jal x1, 0xc
000014b4: 123458B7    lui x17, 0x12345000
000014b8: 67888893    addi x17, x17, 1656
000014bc: DEADC837    lui x16, 0xdeadc000
000014c0: EEF80813    addi x16, x16, -273
000014c4: 00003337    lui x6, 0x3000
000014c8: 07030313    addi x6, x6, 112
000014cc: 01130023    sb x17, 0(x6)
000014d0: 010300A3    sb x16, 1(x6)
000014d4: 01130123    sb x17, 2(x6)
000014d8: 011301A3    sb x17, 3(x6)
000014dc: 7878F8B7    lui x17, 0x7878f000
000014e0: F7888893    addi x17, x17, -136
000014e4: 00032283    lw x5, 0(x6)
000014e8: 00589463    bne x17, x5, 0x14f0
000014ec: 00C0006F    jal x0, 0x14f8
000014f0: B89FE0EF    jal x1, 0x78
000014f4: 0080006F    jal x0, 0x14fc
000014f8: B2DFE0EF    jal x1, 0x24
000014fc: 00412083    lw x1, 4(x2)
00001500: 00008067    jalr x0, x1, 0
00001504: 00112223    sw x1, 4(x2)
00001508: 06100513    addi x10, x0, 97
0000150c: B01FE0EF    jal x1, 0xc
00001510: 07500513    addi x10, x0, 117
00001514: AF9FE0EF    jal x1, 0xc
00001518: 06900513    addi x10, x0, 105
0000151c: AF1FE0EF    jal x1, 0xc
00001520: 07000513    addi x10, x0, 112
00001524: AE9FE0EF    jal x1, 0xc
00001528: 06300513    addi x10, x0, 99
0000152c: AE1FE0EF    jal x1, 0xc
00001530: 02E00513    addi x10, x0, 46
00001534: AD9FE0EF    jal x1, 0xc
00001538: 00007297    auipc x5, 0x7000
0000153c: 00000897    auipc x17, 0x0
00001540: FFC88893    addi x17, x17, -4
00001544: 00700313    addi x6, x0, 7
00001548: 00C31313    slli x6, x6, 12
0000154c: 006888B3    add x17, x17, x6
00001550: 00589463    bne x17, x5, 0x1558
00001554: 00C0006F    jal x0, 0x1560
00001558: B21FE0EF    jal x1, 0x78
0000155c: 0080006F    jal x0, 0x1564
00001560: AC5FE0EF    jal x1, 0x24
00001564: 00412083    lw x1, 4(x2)
00001568: 00008067    jalr x0, x1, 0
0000156c: 00112223    sw x1, 4(x2)
00001570: 06C00513    addi x10, x0, 108
00001574: A99FE0EF    jal x1, 0xc
00001578: 07500513    addi x10, x0, 117
0000157c: A91FE0EF    jal x1, 0xc
00001580: 06900513    addi x10, x0, 105
00001584: A89FE0EF    jal x1, 0xc
00001588: 02E00513    addi x10, x0, 46
0000158c: A81FE0EF    jal x1, 0xc
00001590: 02E00513    addi x10, x0, 46
00001594: A79FE0EF    jal x1, 0xc
00001598: 02E00513    addi x10, x0, 46
0000159c: A71FE0EF    jal x1, 0xc
000015a0: 000072B7    lui x5, 0x7000
000015a4: 00700893    addi x17, x0, 7
000015a8: 00C89893    slli x17, x17, 12
000015ac: 00589463    bne x17, x5, 0x15b4
000015b0: 00C0006F    jal x0, 0x15bc
000015b4: AC5FE0EF    jal x1, 0x78
000015b8: 0080006F    jal x0, 0x15c0
000015bc: A69FE0EF    jal x1, 0x24
000015c0: 00412083    lw x1, 4(x2)
000015c4: 00008067    jalr x0, x1, 0
000015c8: 00112223    sw x1, 4(x2)
000015cc: 06200513    addi x10, x0, 98
000015d0: A3DFE0EF    jal x1, 0xc
000015d4: 06500513    addi x10, x0, 101
000015d8: A35FE0EF    jal x1, 0xc
000015dc: 07100513    addi x10, x0, 113
000015e0: A2DFE0EF    jal x1, 0xc
000015e4: 02E00513    addi x10, x0, 46
000015e8: A25FE0EF    jal x1, 0xc
000015ec: 02E00513    addi x10, x0, 46
000015f0: A1DFE0EF    jal x1, 0xc
000015f4: 02E00513    addi x10, x0, 46
000015f8: A15FE0EF    jal x1, 0xc
000015fc: 00000293    addi x5, x0, 0
00001600: 00000313    addi x6, x0, 0
00001604: 00628663    beq x5, x6, 0x1610
00001608: 0A40006F    jal x0, 0x16ac
0000160c: 00C0006F    jal x0, 0x1618
00001610: FE628EE3    beq x5, x6, 0x160c
00001614: 0980006F    jal x0, 0x16ac
00001618: 00100293    addi x5, x0, 1
0000161c: 00100313    addi x6, x0, 1
00001620: 00628663    beq x5, x6, 0x162c
00001624: 0880006F    jal x0, 0x16ac
00001628: 00C0006F    jal x0, 0x1634
0000162c: FE628EE3    beq x5, x6, 0x1628
00001630: 07C0006F    jal x0, 0x16ac
00001634: FFF00293    addi x5, x0, -1
00001638: FFF00313    addi x6, x0, -1
0000163c: 00628663    beq x5, x6, 0x1648
00001640: 06C0006F    jal x0, 0x16ac
00001644: 00C0006F    jal x0, 0x1650
00001648: FE628EE3    beq x5, x6, 0x1644
0000164c: 0600006F    jal x0, 0x16ac
00001650: 00100293    addi x5, x0, 1
00001654: FFF00313    addi x6, x0, -1
00001658: 04628A63    beq x5, x6, 0x16ac
0000165c: 0080006F    jal x0, 0x1664
00001660: 04C0006F    jal x0, 0x16ac
00001664: FE628EE3    beq x5, x6, 0x1660
00001668: 00100293    addi x5, x0, 1
0000166c: 00528663    beq x5, x5, 0x1678
00001670: 03C0006F    jal x0, 0x16ac
00001674: 00C0006F    jal x0, 0x1680
00001678: FE528EE3    beq x5, x5, 0x1674
0000167c: 0300006F    jal x0, 0x16ac
00001680: 00100293    addi x5, x0, 1
00001684: 00000013    addi x0, x0, 0
00001688: 00000013    addi x0, x0, 0
0000168c: 00100313    addi x6, x0, 1
00001690: 00000013    addi x0, x0, 0
00001694: 00628663    beq x5, x6, 0x16a0
00001698: 0140006F    jal x0, 0x16ac
0000169c: 00C0006F    jal x0, 0x16a8
000016a0: FE628EE3    beq x5, x6, 0x169c
000016a4: 0080006F    jal x0, 0x16ac
000016a8: 00C0006F    jal x0, 0x16b4
000016ac: 9CDFE0EF    jal x1, 0x78
000016b0: 0080006F    jal x0, 0x16b8
000016b4: 971FE0EF    jal x1, 0x24
000016b8: 00412083    lw x1, 4(x2)
000016bc: 00008067    jalr x0, x1, 0
000016c0: 00112223    sw x1, 4(x2)
000016c4: 06200513    addi x10, x0, 98
000016c8: 945FE0EF    jal x1, 0xc
000016cc: 06E00513    addi x10, x0, 110
000016d0: 93DFE0EF    jal x1, 0xc
000016d4: 06500513    addi x10, x0, 101
000016d8: 935FE0EF    jal x1, 0xc
000016dc: 02E00513    addi x10, x0, 46
000016e0: 92DFE0EF    jal x1, 0xc
000016e4: 02E00513    addi x10, x0, 46
000016e8: 925FE0EF    jal x1, 0xc
000016ec: 02E00513    addi x10, x0, 46
000016f0: 91DFE0EF    jal x1, 0xc
000016f4: 00000293    addi x5, x0, 0
000016f8: 00100313    addi x6, x0, 1
000016fc: 00629663    bne x5, x6, 0x1708
00001700: 0A00006F    jal x0, 0x17a0
00001704: 00C0006F    jal x0, 0x1710
00001708: FE629EE3    bne x5, x6, 0x1704
0000170c: 0940006F    jal x0, 0x17a0
00001710: 00100293    addi x5, x0, 1
00001714: FFF00313    addi x6, x0, -1
00001718: 00629663    bne x5, x6, 0x1724
0000171c: 0840006F    jal x0, 0x17a0
00001720: 00C0006F    jal x0, 0x172c
00001724: FE629EE3    bne x5, x6, 0x1720
00001728: 0780006F    jal x0, 0x17a0
0000172c: FFF00293    addi x5, x0, -1
00001730: 00100313    addi x6, x0, 1
00001734: 00629663    bne x5, x6, 0x1740
00001738: 0680006F    jal x0, 0x17a0
0000173c: 00C0006F    jal x0, 0x1748
00001740: FE629EE3    bne x5, x6, 0x173c
00001744: 05C0006F    jal x0, 0x17a0
00001748: 00100293    addi x5, x0, 1
0000174c: 00100313    addi x6, x0, 1
00001750: 04629863    bne x5, x6, 0x17a0
00001754: 0080006F    jal x0, 0x175c
00001758: 0480006F    jal x0, 0x17a0
0000175c: FE629EE3    bne x5, x6, 0x1758
00001760: 00100293    addi x5, x0, 1
00001764: 02529E63    bne x5, x5, 0x17a0
00001768: 0080006F    jal x0, 0x1770
0000176c: 0340006F    jal x0, 0x17a0
00001770: FE529EE3    bne x5, x5, 0x176c
00001774: 00100293    addi x5, x0, 1
00001778: 00000013    addi x0, x0, 0
0000177c: 00000013    addi x0, x0, 0
00001780: FFF00313    addi x6, x0, -1
00001784: 00000013    addi x0, x0, 0
00001788: 00629663    bne x5, x6, 0x1794
0000178c: 0140006F    jal x0, 0x17a0
00001790: 00C0006F    jal x0, 0x179c
00001794: FE629EE3    bne x5, x6, 0x1790
00001798: 0080006F    jal x0, 0x17a0
0000179c: 00C0006F    jal x0, 0x17a8
000017a0: 8D9FE0EF    jal x1, 0x78
000017a4: 0080006F    jal x0, 0x17ac
000017a8: 87DFE0EF    jal x1, 0x24
000017ac: 00412083    lw x1, 4(x2)
000017b0: 00008067    jalr x0, x1, 0
000017b4: 00112223    sw x1, 4(x2)
000017b8: 06200513    addi x10, x0, 98
000017bc: 851FE0EF    jal x1, 0xc
000017c0: 06C00513    addi x10, x0, 108
000017c4: 849FE0EF    jal x1, 0xc
000017c8: 07400513    addi x10, x0, 116
000017cc: 841FE0EF    jal x1, 0xc
000017d0: 02E00513    addi x10, x0, 46
000017d4: 839FE0EF    jal x1, 0xc
000017d8: 02E00513    addi x10, x0, 46
000017dc: 831FE0EF    jal x1, 0xc
000017e0: 02E00513    addi x10, x0, 46
000017e4: 829FE0EF    jal x1, 0xc
000017e8: 00000293    addi x5, x0, 0
000017ec: 00100313    addi x6, x0, 1
000017f0: 0062C663    blt x5, x6, 0x17fc
000017f4: 09C0006F    jal x0, 0x1890
000017f8: 00C0006F    jal x0, 0x1804
000017fc: FE62CEE3    blt x5, x6, 0x17f8
00001800: 0900006F    jal x0, 0x1890
00001804: FFF00293    addi x5, x0, -1
00001808: 00100313    addi x6, x0, 1
0000180c: 0062C663    blt x5, x6, 0x1818
00001810: 0800006F    jal x0, 0x1890
00001814: 00C0006F    jal x0, 0x1820
00001818: FE62CEE3    blt x5, x6, 0x1814
0000181c: 0740006F    jal x0, 0x1890
00001820: 00100293    addi x5, x0, 1
00001824: FFF00313    addi x6, x0, -1
00001828: 0662C463    blt x5, x6, 0x1890
0000182c: 0080006F    jal x0, 0x1834
00001830: 0600006F    jal x0, 0x1890
00001834: FE62CEE3    blt x5, x6, 0x1830
00001838: FFF00293    addi x5, x0, -1
0000183c: FFE00313    addi x6, x0, -2
00001840: 0462C863    blt x5, x6, 0x1890
00001844: 0080006F    jal x0, 0x184c
00001848: 0480006F    jal x0, 0x1890
0000184c: FE62CEE3    blt x5, x6, 0x1848
00001850: 00100293    addi x5, x0, 1
00001854: 0252CE63    blt x5, x5, 0x1890
00001858: 0080006F    jal x0, 0x1860
0000185c: 0340006F    jal x0, 0x1890
00001860: FE52CEE3    blt x5, x5, 0x185c
00001864: 00000293    addi x5, x0, 0
00001868: 00000013    addi x0, x0, 0
0000186c: 00000013    addi x0, x0, 0
00001870: 00100313    addi x6, x0, 1
00001874: 00000013    addi x0, x0, 0
00001878: 0062C663    blt x5, x6, 0x1884
0000187c: 0140006F    jal x0, 0x1890
00001880: 00C0006F    jal x0, 0x188c
00001884: FE62CEE3    blt x5, x6, 0x1880
00001888: 0080006F    jal x0, 0x1890
0000188c: 00C0006F    jal x0, 0x1898
00001890: FE8FE0EF    jal x1, 0x78
00001894: 0080006F    jal x0, 0x189c
00001898: F8CFE0EF    jal x1, 0x24
0000189c: 00412083    lw x1, 4(x2)
000018a0: 00008067    jalr x0, x1, 0
000018a4: 00112223    sw x1, 4(x2)
000018a8: 06200513    addi x10, x0, 98
000018ac: F60FE0EF    jal x1, 0xc
000018b0: 06C00513    addi x10, x0, 108
000018b4: F58FE0EF    jal x1, 0xc
000018b8: 07400513    addi x10, x0, 116
000018bc: F50FE0EF    jal x1, 0xc
000018c0: 07500513    addi x10, x0, 117
000018c4: F48FE0EF    jal x1, 0xc
000018c8: 02E00513    addi x10, x0, 46
000018cc: F40FE0EF    jal x1, 0xc
000018d0: 02E00513    addi x10, x0, 46
000018d4: F38FE0EF    jal x1, 0xc
000018d8: 00000293    addi x5, x0, 0
000018dc: 00100313    addi x6, x0, 1
000018e0: 0062E663    bltu x5, x6, 0x18ec
000018e4: 09C0006F    jal x0, 0x1980
000018e8: 00C0006F    jal x0, 0x18f4
000018ec: FE62EEE3    bltu x5, x6, 0x18e8
000018f0: 0900006F    jal x0, 0x1980
000018f4: 00100293    addi x5, x0, 1
000018f8: FFF00313    addi x6, x0, -1
000018fc: 0062E663    bltu x5, x6, 0x1908
00001900: 0800006F    jal x0, 0x1980
00001904: 00C0006F    jal x0, 0x1910
00001908: FE62EEE3    bltu x5, x6, 0x1904
0000190c: 0740006F    jal x0, 0x1980
00001910: FFF00293    addi x5, x0, -1
00001914: FFE00313    addi x6, x0, -2
00001918: 0662E463    bltu x5, x6, 0x1980
0000191c: 0080006F    jal x0, 0x1924
00001920: 0600006F    jal x0, 0x1980
00001924: FE62EEE3    bltu x5, x6, 0x1920
00001928: FFF00293    addi x5, x0, -1
0000192c: 00100313    addi x6, x0, 1
00001930: 0462E863    bltu x5, x6, 0x1980
00001934: 0080006F    jal x0, 0x193c
00001938: 0480006F    jal x0, 0x1980
0000193c: FE62EEE3    bltu x5, x6, 0x1938
00001940: 00100293    addi x5, x0, 1
00001944: 0252EE63    bltu x5, x5, 0x1980
00001948: 0080006F    jal x0, 0x1950
0000194c: 0340006F    jal x0, 0x1980
00001950: FE52EEE3    bltu x5, x5, 0x194c
00001954: 00000293    addi x5, x0, 0
00001958: 00000013    addi x0, x0, 0
0000195c: 00000013    addi x0, x0, 0
00001960: 00100313    addi x6, x0, 1
00001964: 00000013    addi x0, x0, 0
00001968: 0062E663    bltu x5, x6, 0x1974
0000196c: 0140006F    jal x0, 0x1980
00001970: 00C0006F    jal x0, 0x197c
00001974: FE62EEE3    bltu x5, x6, 0x1970
00001978: 0080006F    jal x0, 0x1980
0000197c: 00C0006F    jal x0, 0x1988
00001980: EF8FE0EF    jal x1, 0x78
00001984: 0080006F    jal x0, 0x198c
00001988: E9CFE0EF    jal x1, 0x24
0000198c: 00412083    lw x1, 4(x2)
00001990: 00008067    jalr x0, x1, 0
00001994: 00112223    sw x1, 4(x2)
00001998: 06200513    addi x10, x0, 98
0000199c: E70FE0EF    jal x1, 0xc
000019a0: 06700513    addi x10, x0, 103
000019a4: E68FE0EF    jal x1, 0xc
000019a8: 06500513    addi x10, x0, 101
000019ac: E60FE0EF    jal x1, 0xc
000019b0: 02E00513    addi x10, x0, 46
000019b4: E58FE0EF    jal x1, 0xc
000019b8: 02E00513    addi x10, x0, 46
000019bc: E50FE0EF    jal x1, 0xc
000019c0: 02E00513    addi x10, x0, 46
000019c4: E48FE0EF    jal x1, 0xc
000019c8: 00100293    addi x5, x0, 1
000019cc: 00000313    addi x6, x0, 0
000019d0: 0062D663    bge x5, x6, 0x19dc
000019d4: 0A00006F    jal x0, 0x1a74
000019d8: 00C0006F    jal x0, 0x19e4
000019dc: FE62DEE3    bge x5, x6, 0x19d8
000019e0: 0940006F    jal x0, 0x1a74
000019e4: 00100293    addi x5, x0, 1
000019e8: FFF00313    addi x6, x0, -1
000019ec: 0062D663    bge x5, x6, 0x19f8
000019f0: 0840006F    jal x0, 0x1a74
000019f4: 00C0006F    jal x0, 0x1a00
000019f8: FE62DEE3    bge x5, x6, 0x19f4
000019fc: 0780006F    jal x0, 0x1a74
00001a00: FFF00293    addi x5, x0, -1
00001a04: 00100313    addi x6, x0, 1
00001a08: 0662D663    bge x5, x6, 0x1a74
00001a0c: 0080006F    jal x0, 0x1a14
00001a10: 0640006F    jal x0, 0x1a74
00001a14: FE62DEE3    bge x5, x6, 0x1a10
00001a18: FFE00293    addi x5, x0, -2
00001a1c: FFF00313    addi x6, x0, -1
00001a20: 0462DA63    bge x5, x6, 0x1a74
00001a24: 0080006F    jal x0, 0x1a2c
00001a28: 04C0006F    jal x0, 0x1a74
00001a2c: FE62DEE3    bge x5, x6, 0x1a28
00001a30: 00100293    addi x5, x0, 1
00001a34: 0052D663    bge x5, x5, 0x1a40
00001a38: 03C0006F    jal x0, 0x1a74
00001a3c: 00C0006F    jal x0, 0x1a48
00001a40: FE52DEE3    bge x5, x5, 0x1a3c
00001a44: 0300006F    jal x0, 0x1a74
00001a48: 00100293    addi x5, x0, 1
00001a4c: 00000013    addi x0, x0, 0
00001a50: 00000013    addi x0, x0, 0
00001a54: FFF00313    addi x6, x0, -1
00001a58: 00000013    addi x0, x0, 0
00001a5c: 0062D663    bge x5, x6, 0x1a68
00001a60: 0140006F    jal x0, 0x1a74
00001a64: 00C0006F    jal x0, 0x1a70
00001a68: FE62DEE3    bge x5, x6, 0x1a64
00001a6c: 0080006F    jal x0, 0x1a74
00001a70: 00C0006F    jal x0, 0x1a7c
00001a74: E04FE0EF    jal x1, 0x78
00001a78: 0080006F    jal x0, 0x1a80
00001a7c: DA8FE0EF    jal x1, 0x24
00001a80: 00412083    lw x1, 4(x2)
00001a84: 00008067    jalr x0, x1, 0
00001a88: 00112223    sw x1, 4(x2)
00001a8c: 06200513    addi x10, x0, 98
00001a90: D7CFE0EF    jal x1, 0xc
00001a94: 06700513    addi x10, x0, 103
00001a98: D74FE0EF    jal x1, 0xc
00001a9c: 06500513    addi x10, x0, 101
00001aa0: D6CFE0EF    jal x1, 0xc
00001aa4: 07500513    addi x10, x0, 117
00001aa8: D64FE0EF    jal x1, 0xc
00001aac: 02E00513    addi x10, x0, 46
00001ab0: D5CFE0EF    jal x1, 0xc
00001ab4: 02E00513    addi x10, x0, 46
00001ab8: D54FE0EF    jal x1, 0xc
00001abc: 00100293    addi x5, x0, 1
00001ac0: 00000313    addi x6, x0, 0
00001ac4: 0062F663    bgeu x5, x6, 0x1ad0
00001ac8: 0A00006F    jal x0, 0x1b68
00001acc: 00C0006F    jal x0, 0x1ad8
00001ad0: FE62FEE3    bgeu x5, x6, 0x1acc
00001ad4: 0940006F    jal x0, 0x1b68
00001ad8: FFF00293    addi x5, x0, -1
00001adc: 00100313    addi x6, x0, 1
00001ae0: 0062F663    bgeu x5, x6, 0x1aec
00001ae4: 0840006F    jal x0, 0x1b68
00001ae8: 00C0006F    jal x0, 0x1af4
00001aec: FE62FEE3    bgeu x5, x6, 0x1ae8
00001af0: 0780006F    jal x0, 0x1b68
00001af4: 00100293    addi x5, x0, 1
00001af8: FFF00313    addi x6, x0, -1
00001afc: 0662F663    bgeu x5, x6, 0x1b68
00001b00: 0080006F    jal x0, 0x1b08
00001b04: 0640006F    jal x0, 0x1b68
00001b08: FE62FEE3    bgeu x5, x6, 0x1b04
00001b0c: FFE00293    addi x5, x0, -2
00001b10: FFF00313    addi x6, x0, -1
00001b14: 0462FA63    bgeu x5, x6, 0x1b68
00001b18: 0080006F    jal x0, 0x1b20
00001b1c: 04C0006F    jal x0, 0x1b68
00001b20: FE62FEE3    bgeu x5, x6, 0x1b1c
00001b24: 00100293    addi x5, x0, 1
00001b28: 0052F663    bgeu x5, x5, 0x1b34
00001b2c: 03C0006F    jal x0, 0x1b68
00001b30: 00C0006F    jal x0, 0x1b3c
00001b34: FE52FEE3    bgeu x5, x5, 0x1b30
00001b38: 0300006F    jal x0, 0x1b68
00001b3c: FFF00293    addi x5, x0, -1
00001b40: 00000013    addi x0, x0, 0
00001b44: 00000013    addi x0, x0, 0
00001b48: 00100313    addi x6, x0, 1
00001b4c: 00000013    addi x0, x0, 0
00001b50: 0062F663    bgeu x5, x6, 0x1b5c
00001b54: 0140006F    jal x0, 0x1b68
00001b58: 00C0006F    jal x0, 0x1b64
00001b5c: FE62FEE3    bgeu x5, x6, 0x1b58
00001b60: 0080006F    jal x0, 0x1b68
00001b64: 00C0006F    jal x0, 0x1b70
00001b68: D10FE0EF    jal x1, 0x78
00001b6c: 0080006F    jal x0, 0x1b74
00001b70: CB4FE0EF    jal x1, 0x24
00001b74: 00412083    lw x1, 4(x2)
00001b78: 00008067    jalr x0, x1, 0
00001b7c: 00112223    sw x1, 4(x2)
00001b80: 06A00513    addi x10, x0, 106
00001b84: C88FE0EF    jal x1, 0xc
00001b88: 06100513    addi x10, x0, 97
00001b8c: C80FE0EF    jal x1, 0xc
00001b90: 06C00513    addi x10, x0, 108
00001b94: C78FE0EF    jal x1, 0xc
00001b98: 02E00513    addi x10, x0, 46
00001b9c: C70FE0EF    jal x1, 0xc
00001ba0: 02E00513    addi x10, x0, 46
00001ba4: C68FE0EF    jal x1, 0xc
00001ba8: 02E00513    addi x10, x0, 46
00001bac: C60FE0EF    jal x1, 0xc
00001bb0: 00C0006F    jal x0, 0x1bbc
00001bb4: CC4FE0EF    jal x1, 0x78
00001bb8: 0080006F    jal x0, 0x1bc0
00001bbc: C68FE0EF    jal x1, 0x24
00001bc0: 00412083    lw x1, 4(x2)
00001bc4: 00008067    jalr x0, x1, 0
00001bc8: 00112223    sw x1, 4(x2)
00001bcc: 06A00513    addi x10, x0, 106
00001bd0: C3CFE0EF    jal x1, 0xc
00001bd4: 06100513    addi x10, x0, 97
00001bd8: C34FE0EF    jal x1, 0xc
00001bdc: 06C00513    addi x10, x0, 108
00001be0: C2CFE0EF    jal x1, 0xc
00001be4: 07200513    addi x10, x0, 114
00001be8: C24FE0EF    jal x1, 0xc
00001bec: 02E00513    addi x10, x0, 46
00001bf0: C1CFE0EF    jal x1, 0xc
00001bf4: 02E00513    addi x10, x0, 46
00001bf8: C14FE0EF    jal x1, 0xc
00001bfc: 00C0006F    jal x0, 0x1c08
00001c00: C78FE0EF    jal x1, 0x78
00001c04: 0080006F    jal x0, 0x1c0c
00001c08: C1CFE0EF    jal x1, 0x24
00001c0c: 00412083    lw x1, 4(x2)
00001c10: 00008067    jalr x0, x1, 0
00001c14: 00112223    sw x1, 4(x2)
00001c18: 06D00513    addi x10, x0, 109
00001c1c: BF0FE0EF    jal x1, 0xc
00001c20: 06100513    addi x10, x0, 97
00001c24: BE8FE0EF    jal x1, 0xc
00001c28: 06C00513    addi x10, x0, 108
00001c2c: BE0FE0EF    jal x1, 0xc
00001c30: 06700513    addi x10, x0, 103
00001c34: BD8FE0EF    jal x1, 0xc
00001c38: 06E00513    addi x10, x0, 110
00001c3c: BD0FE0EF    jal x1, 0xc
00001c40: 02E00513    addi x10, x0, 46
00001c44: BC8FE0EF    jal x1, 0xc
00001c48: 123458B7    lui x17, 0x12345000
00001c4c: 67888893    addi x17, x17, 1656
00001c50: DEADC837    lui x16, 0xdeadc000
00001c54: EEF80813    addi x16, x16, -273
00001c58: 00003337    lui x6, 0x3000
00001c5c: 00030313    addi x6, x6, 0
00001c60: 01132023    sw x17, 0(x6)
00001c64: 01032223    sw x16, 4(x6)
00001c68: BEEF18B7    lui x17, 0xbeef1000
00001c6c: 23488893    addi x17, x17, 564
00001c70: 00232283    lw x5, 2(x6)
00001c74: 00589463    bne x17, x5, 0x1c7c
00001c78: 00C0006F    jal x0, 0x1c84
00001c7c: BFCFE0EF    jal x1, 0x78
00001c80: 0080006F    jal x0, 0x1c88
00001c84: BA0FE0EF    jal x1, 0x24
00001c88: 00412083    lw x1, 4(x2)
00001c8c: 00008067    jalr x0, x1, 0
00001c90: 00C0006F    jal x0, 0x1c9c
00001c94: BE4FE0EF    jal x1, 0x78
00001c98: 0080006F    jal x0, 0x1ca0
00001c9c: BDCFE0EF    jal x1, 0x78
00001ca0: 00412083    lw x1, 4(x2)
00001ca4: 00008067    jalr x0, x1, 0
00001ca8: 00112223    sw x1, 4(x2)
00001cac: 06900513    addi x10, x0, 105
00001cb0: B5CFE0EF    jal x1, 0xc
00001cb4: 06F00513    addi x10, x0, 111
00001cb8: B54FE0EF    jal x1, 0xc
00001cbc: 07300513    addi x10, x0, 115
00001cc0: B4CFE0EF    jal x1, 0xc
00001cc4: 07700513    addi x10, x0, 119
00001cc8: B44FE0EF    jal x1, 0xc
00001ccc: 02E00513    addi x10, x0, 46
00001cd0: B3CFE0EF    jal x1, 0xc
00001cd4: 02E00513    addi x10, x0, 46
00001cd8: B34FE0EF    jal x1, 0xc
00001cdc: 10010337    lui x6, 0x10010000
00001ce0: 00030313    addi x6, x6, 0
00001ce4: 00032283    lw x5, 0(x6)
00001ce8: 123458B7    lui x17, 0x12345000
00001cec: 67888893    addi x17, x17, 1656
00001cf0: 00589463    bne x17, x5, 0x1cf8
00001cf4: 00C0006F    jal x0, 0x1d00
00001cf8: B80FE0EF    jal x1, 0x78
00001cfc: 0080006F    jal x0, 0x1d04
00001d00: B24FE0EF    jal x1, 0x24
00001d04: 00412083    lw x1, 4(x2)
00001d08: 00008067    jalr x0, x1, 0
00001d0c: 00000000    .word 0x00000000
00001d10: 00000000    .word 0x00000000
00001d14: 00000000    .word 0x00000000
00001d18: 00000000    .word 0x00000000
00001d1c: 00000000    .word 0x00000000
00001d20: 00000000    .word 0x00000000
00001d24: 00000000    .word 0x00000000
00001d28: 00000000    .word 0x00000000
00001d2c: 00000000    .word 0x00000000
00001d30: 00000000    .word 0x00000000
00001d34: 00000000    .word 0x00000000
00001d38: 00000000    .word 0x00000000
00001d3c: 00000000    .word 0x00000000
00001d40: 00000000    .word 0x00000000
00001d44: 00000000    .word 0x00000000
00001d48: 00000000    .word 0x00000000
00001d4c: 00000000    .word 0x00000000
00001d50: 00000000    .word 0x00000000
00001d54: 00000000    .word 0x00000000
00001d58: 00000000    .word 0x00000000
00001d5c: 00000000    .word 0x00000000
00001d60: 00000000    .word 0x00000000
00001d64: 00000000    .word 0x00000000
00001d68: 00000000    .word 0x00000000
00001d6c: 00000000    .word 0x00000000
00001d70: 00000000    .word 0x00000000
00001d74: 00000000    .word 0x00000000
00001d78: 00000000    .word 0x00000000
00001d7c: 00000000    .word 0x00000000
00001d80: 00000000    .word 0x00000000
00001d84: 00000000    .word 0x00000000
00001d88: 00000000    .word 0x00000000
00001d8c: 00000000    .word 0x00000000
00001d90: 00000000    .word 0x00000000
00001d94: 00000000    .word 0x00000000
00001d98: 00000000    .word 0x00000000
00001d9c: 00000000    .word 0x00000000
00001da0: 00000000    .word 0x00000000
00001da4: 00000000    .word 0x00000000
00001da8: 00000000    .word 0x00000000
00001dac: 00000000    .word 0x00000000
00001db0: 00000000    .word 0x00000000
00001db4: 00000000    .word 0x00000000
00001db8: 00000000    .word 0x00000000
00001dbc: 00000000    .word 0x00000000
00001dc0: 00000000    .word 0x00000000
00001dc4: 00000000    .word 0x00000000
00001dc8: 00000000    .word 0x00000000
00001dcc: 00000000    .word 0x00000000
00001dd0: 00000000    .word 0x00000000
00001dd4: 00000000    .word 0x00000000
00001dd8: 00000000    .word 0x00000000
00001ddc: 00000000    .word 0x00000000
00001de0: 00000000    .word 0x00000000
00001de4: 00000000    .word 0x00000000
00001de8: 00000000    .word 0x00000000
00001dec: 00000000    .word 0x00000000
00001df0: 00000000    .word 0x00000000
00001df4: 00000000    .word 0x00000000
00001df8: 00000000    .word 0x00000000
00001dfc: 00000000    .word 0x00000000
00001e00: 00000000    .word 0x00000000
00001e04: 00000000    .word 0x00000000
00001e08: 00000000    .word 0x00000000
00001e0c: 00000000    .word 0x00000000
00001e10: 00000000    .word 0x00000000
00001e14: 00000000    .word 0x00000000
00001e18: 00000000    .word 0x00000000
00001e1c: 00000000    .word 0x00000000
00001e20: 00000000    .word 0x00000000
00001e24: 00000000    .word 0x00000000
00001e28: 00000000    .word 0x00000000
00001e2c: 00000000    .word 0x00000000
00001e30: 00000000    .word 0x00000000
00001e34: 00000000    .word 0x00000000
00001e38: 00000000    .word 0x00000000
00001e3c: 00000000    .word 0x00000000
00001e40: 00000000    .word 0x00000000
00001e44: 00000000    .word 0x00000000
00001e48: 00000000    .word 0x00000000
00001e4c: 00000000    .word 0x00000000
00001e50: 00000000    .word 0x00000000
00001e54: 00000000    .word 0x00000000
00001e58: 00000000    .word 0x00000000
00001e5c: 00000000    .word 0x00000000
00001e60: 00000000    .word 0x00000000
00001e64: 00000000    .word 0x00000000
00001e68: 00000000    .word 0x00000000
00001e6c: 00000000    .word 0x00000000
00001e70: 00000000    .word 0x00000000
00001e74: 00000000    .word 0x00000000
00001e78: 00000000    .word 0x00000000
00001e7c: 00000000    .word 0x00000000
00001e80: 00000000    .word 0x00000000
00001e84: 00000000    .word 0x00000000
00001e88: 00000000    .word 0x00000000
00001e8c: 00000000    .word 0x00000000
00001e90: 00000000    .word 0x00000000
00001e94: 00000000    .word 0x00000000
00001e98: 00000000    .word 0x00000000
00001e9c: 00000000    .word 0x00000000
00001ea0: 00000000    .word 0x00000000
00001ea4: 00000000    .word 0x00000000
00001ea8: 00000000    .word 0x00000000
00001eac: 00000000    .word 0x00000000
00001eb0: 00000000    .word 0x00000000
00001eb4: 00000000    .word 0x00000000
00001eb8: 00000000    .word 0x00000000
00001ebc: 00000000    .word 0x00000000
00001ec0: 00000000    .word 0x00000000
00001ec4: 00000000    .word 0x00000000
00001ec8: 00000000    .word 0x00000000
00001ecc: 00000000    .word 0x00000000
00001ed0: 00000000    .word 0x00000000
00001ed4: 00000000    .word 0x00000000
00001ed8: 00000000    .word 0x00000000
00001edc: 00000000    .word 0x00000000
00001ee0: 00000000    .word 0x00000000
00001ee4: 00000000    .word 0x00000000
00001ee8: 00000000    .word 0x00000000
00001eec: 00000000    .word 0x00000000
00001ef0: 00000000    .word 0x00000000
00001ef4: 00000000    .word 0x00000000
00001ef8: 00000000    .word 0x00000000
00001efc: 00000000    .word 0x00000000
00001f00: 00000000    .word 0x00000000
00001f04: 00000000    .word 0x00000000
00001f08: 00000000    .word 0x00000000
00001f0c: 00000000    .word 0x00000000
00001f10: 00000000    .word 0x00000000
00001f14: 00000000    .word 0x00000000
00001f18: 00000000    .word 0x00000000
00001f1c: 00000000    .word 0x00000000
00001f20: 00000000    .word 0x00000000
00001f24: 00000000    .word 0x00000000
00001f28: 00000000    .word 0x00000000
00001f2c: 00000000    .word 0x00000000
00001f30: 00000000    .word 0x00000000
00001f34: 00000000    .word 0x00000000
00001f38: 00000000    .word 0x00000000
00001f3c: 00000000    .word 0x00000000
00001f40: 00000000    .word 0x00000000
00001f44: 00000000    .word 0x00000000
00001f48: 00000000    .word 0x00000000
00001f4c: 00000000    .word 0x00000000
00001f50: 00000000    .word 0x00000000
00001f54: 00000000    .word 0x00000000
00001f58: 00000000    .word 0x00000000
00001f5c: 00000000    .word 0x00000000
00001f60: 00000000    .word 0x00000000
00001f64: 00000000    .word 0x00000000
00001f68: 00000000    .word 0x00000000
00001f6c: 00000000    .word 0x00000000
00001f70: 00000000    .word 0x00000000
00001f74: 00000000    .word 0x00000000
00001f78: 00000000    .word 0x00000000
00001f7c: 00000000    .word 0x00000000
00001f80: 00000000    .word 0x00000000
00001f84: 00000000    .word 0x00000000
00001f88: 00000000    .word 0x00000000
00001f8c: 00000000    .word 0x00000000
00001f90: 00000000    .word 0x00000000
00001f94: 00000000    .word 0x00000000
00001f98: 00000000    .word 0x00000000
00001f9c: 00000000    .word 0x00000000
00001fa0: 00000000    .word 0x00000000
00001fa4: 00000000    .word 0x00000000
00001fa8: 00000000    .word 0x00000000
00001fac: 00000000    .word 0x00000000
00001fb0: 00000000    .word 0x00000000
00001fb4: 00000000    .word 0x00000000
00001fb8: 00000000    .word 0x00000000
00001fbc: 00000000    .word 0x00000000
00001fc0: 00000000    .word 0x00000000
00001fc4: 00000000    .word 0x00000000
00001fc8: 00000000    .word 0x00000000
00001fcc: 00000000    .word 0x00000000
00001fd0: 00000000    .word 0x00000000
00001fd4: 00000000    .word 0x00000000
00001fd8: 00000000    .word 0x00000000
00001fdc: 00000000    .word 0x00000000
00001fe0: 00000000    .word 0x00000000
00001fe4: 00000000    .word 0x00000000
00001fe8: 00000000    .word 0x00000000
00001fec: 00000000    .word 0x00000000
00001ff0: 00000000    .word 0x00000000
00001ff4: 00000000    .word 0x00000000
00001ff8: 00000000    .word 0x00000000
00001ffc: 00000000    .word 0x00000000
